
MyRobot_000.elf:     file format elf32-avr

Sections:
Idx Name          Size      VMA       LMA       File off  Algn
  0 .data         0000002c  00800100  00002a42  00002ad6  2**0
                  CONTENTS, ALLOC, LOAD, DATA
  1 .text         00002a42  00000000  00000000  00000094  2**1
                  CONTENTS, ALLOC, LOAD, READONLY, CODE
  2 .bss          00000110  0080012c  0080012c  00002b02  2**0
                  ALLOC
  3 .comment      00000030  00000000  00000000  00002b02  2**0
                  CONTENTS, READONLY
  4 .note.gnu.avr.deviceinfo 00000040  00000000  00000000  00002b34  2**2
                  CONTENTS, READONLY
  5 .debug_aranges 00000878  00000000  00000000  00002b74  2**0
                  CONTENTS, READONLY, DEBUGGING
  6 .debug_info   00014e3d  00000000  00000000  000033ec  2**0
                  CONTENTS, READONLY, DEBUGGING
  7 .debug_abbrev 00003853  00000000  00000000  00018229  2**0
                  CONTENTS, READONLY, DEBUGGING
  8 .debug_line   000044b4  00000000  00000000  0001ba7c  2**0
                  CONTENTS, READONLY, DEBUGGING
  9 .debug_frame  00001b14  00000000  00000000  0001ff30  2**2
                  CONTENTS, READONLY, DEBUGGING
 10 .debug_str    00002f13  00000000  00000000  00021a44  2**0
                  CONTENTS, READONLY, DEBUGGING
 11 .debug_loc    00009443  00000000  00000000  00024957  2**0
                  CONTENTS, READONLY, DEBUGGING
 12 .debug_ranges 000008d0  00000000  00000000  0002dd9a  2**0
                  CONTENTS, READONLY, DEBUGGING

Disassembly of section .text:

00000000 <__vectors>:
       0:	0c 94 b1 00 	jmp	0x162	; 0x162 <__ctors_end>
       4:	0c 94 d9 00 	jmp	0x1b2	; 0x1b2 <__bad_interrupt>
       8:	0c 94 d9 00 	jmp	0x1b2	; 0x1b2 <__bad_interrupt>
       c:	0c 94 d9 00 	jmp	0x1b2	; 0x1b2 <__bad_interrupt>
      10:	0c 94 d9 00 	jmp	0x1b2	; 0x1b2 <__bad_interrupt>
      14:	0c 94 d9 00 	jmp	0x1b2	; 0x1b2 <__bad_interrupt>
      18:	0c 94 d9 00 	jmp	0x1b2	; 0x1b2 <__bad_interrupt>
      1c:	0c 94 0a 07 	jmp	0xe14	; 0xe14 <__vector_7>
      20:	0c 94 d9 00 	jmp	0x1b2	; 0x1b2 <__bad_interrupt>
      24:	0c 94 d9 00 	jmp	0x1b2	; 0x1b2 <__bad_interrupt>
      28:	0c 94 d9 00 	jmp	0x1b2	; 0x1b2 <__bad_interrupt>
      2c:	0c 94 1d 09 	jmp	0x123a	; 0x123a <__vector_11>
      30:	0c 94 d9 00 	jmp	0x1b2	; 0x1b2 <__bad_interrupt>
      34:	0c 94 d9 00 	jmp	0x1b2	; 0x1b2 <__bad_interrupt>
      38:	0c 94 d9 00 	jmp	0x1b2	; 0x1b2 <__bad_interrupt>
      3c:	0c 94 d9 00 	jmp	0x1b2	; 0x1b2 <__bad_interrupt>
      40:	0c 94 85 0d 	jmp	0x1b0a	; 0x1b0a <__vector_16>
      44:	0c 94 d9 00 	jmp	0x1b2	; 0x1b2 <__bad_interrupt>
      48:	0c 94 4c 0c 	jmp	0x1898	; 0x1898 <__vector_18>
      4c:	0c 94 7e 0c 	jmp	0x18fc	; 0x18fc <__vector_19>
      50:	0c 94 d9 00 	jmp	0x1b2	; 0x1b2 <__bad_interrupt>
      54:	0c 94 d9 00 	jmp	0x1b2	; 0x1b2 <__bad_interrupt>
      58:	0c 94 d9 00 	jmp	0x1b2	; 0x1b2 <__bad_interrupt>
      5c:	0c 94 d9 00 	jmp	0x1b2	; 0x1b2 <__bad_interrupt>
      60:	0c 94 d9 00 	jmp	0x1b2	; 0x1b2 <__bad_interrupt>
      64:	0c 94 d9 00 	jmp	0x1b2	; 0x1b2 <__bad_interrupt>

00000068 <__trampolines_end>:
      68:	63 6d       	ori	r22, 0xD3	; 211
	...

0000006b <_ZZ15sonar_echoCheckvE3__c>:
      6b:	53 6f 6e 61 72 20 64 69 73 74 61 6e 63 65 3a 20     Sonar distance: 
	...

0000007c <_ZZ23motors_string_maxspeedsvE3__c_0>:
      7c:	20 00                                                .

0000007e <_ZZ23motors_string_maxspeedsvE3__c>:
      7e:	20 4d 61 78 20 53 70 65 65 64 73 3a 20 00            Max Speeds: .

0000008c <_ZZ24motors_string_realspeedsvE3__c_0>:
      8c:	20 00                                                .

0000008e <_ZZ24motors_string_realspeedsvE3__c>:
      8e:	20 52 65 61 6c 53 70 65 65 64 73 3a 20 00            RealSpeeds: .

0000009c <_ZZ20motors_string_speedsvE3__c_0>:
      9c:	20 00                                                .

0000009e <_ZZ20motors_string_speedsvE3__c>:
      9e:	20 53 70 65 65 64 73 3a 20 00                        Speeds: .

000000a8 <_ZZ10SerialInitvE3__c>:
      a8:	53 74 61 72 74 00                                   Start.

000000ae <_ZZ17Task_ServoHandlervE3__c_1>:
      ae:	53 45 52 56 4f 5f 50 48 41 53 45 5f 57 41 49 54     SERVO_PHASE_WAIT
      be:	49 4e 47 00                                         ING.

000000c2 <_ZZ17Task_ServoHandlervE3__c_0>:
      c2:	53 45 52 56 4f 5f 50 48 41 53 45 5f 53 54 4f 50     SERVO_PHASE_STOP
      d2:	45 44 00                                            ED.

000000d5 <_ZZ17Task_ServoHandlervE3__c>:
      d5:	53 45 52 56 4f 5f 50 48 41 53 45 5f 47 45 54 49     SERVO_PHASE_GETI
      e5:	4e 47 5f 41 4e 47 4c 45 2e 20 4e 65 78 74 20 70     NG_ANGLE. Next p
      f5:	6f 73 69 74 69 6f 6e 20 3d 20 00                    osition = .

00000100 <digital_pin_to_timer_PGM>:
     100:	00 00 00 08 00 02 01 00 00 03 04 07 00 00 00 00     ................
     110:	00 00 00 00                                         ....

00000114 <digital_pin_to_bit_mask_PGM>:
     114:	01 02 04 08 10 20 40 80 01 02 04 08 10 20 01 02     ..... @...... ..
     124:	04 08 10 20                                         ... 

00000128 <digital_pin_to_port_PGM>:
     128:	04 04 04 04 04 04 04 04 02 02 02 02 02 02 03 03     ................
     138:	03 03 03 03                                         ....

0000013c <port_to_input_PGM>:
     13c:	00 00 00 00 23 00 26 00 29 00                       ....#.&.).

00000146 <port_to_output_PGM>:
     146:	00 00 00 00 25 00 28 00 2b 00                       ....%.(.+.

00000150 <port_to_mode_PGM>:
     150:	00 00 00 00 24 00 27 00 2a 00                       ....$.'.*.

0000015a <__ctors_start>:
     15a:	2c 02       	muls	r18, r28
     15c:	a7 05       	cpc	r26, r7
     15e:	15 09       	sbc	r17, r5
     160:	ae 0c       	add	r10, r14

00000162 <__ctors_end>:
     162:	11 24       	eor	r1, r1
     164:	1f be       	out	0x3f, r1	; 63
     166:	cf ef       	ldi	r28, 0xFF	; 255
     168:	d8 e0       	ldi	r29, 0x08	; 8
     16a:	de bf       	out	0x3e, r29	; 62
     16c:	cd bf       	out	0x3d, r28	; 61

0000016e <__do_copy_data>:
     16e:	11 e0       	ldi	r17, 0x01	; 1
     170:	a0 e0       	ldi	r26, 0x00	; 0
     172:	b1 e0       	ldi	r27, 0x01	; 1
     174:	e2 e4       	ldi	r30, 0x42	; 66
     176:	fa e2       	ldi	r31, 0x2A	; 42
     178:	02 c0       	rjmp	.+4      	; 0x17e <__do_copy_data+0x10>
     17a:	05 90       	lpm	r0, Z+
     17c:	0d 92       	st	X+, r0
     17e:	ac 32       	cpi	r26, 0x2C	; 44
     180:	b1 07       	cpc	r27, r17
     182:	d9 f7       	brne	.-10     	; 0x17a <__do_copy_data+0xc>

00000184 <__do_clear_bss>:
     184:	22 e0       	ldi	r18, 0x02	; 2
     186:	ac e2       	ldi	r26, 0x2C	; 44
     188:	b1 e0       	ldi	r27, 0x01	; 1
     18a:	01 c0       	rjmp	.+2      	; 0x18e <.do_clear_bss_start>

0000018c <.do_clear_bss_loop>:
     18c:	1d 92       	st	X+, r1

0000018e <.do_clear_bss_start>:
     18e:	ac 33       	cpi	r26, 0x3C	; 60
     190:	b2 07       	cpc	r27, r18
     192:	e1 f7       	brne	.-8      	; 0x18c <.do_clear_bss_loop>

00000194 <__do_global_ctors>:
     194:	10 e0       	ldi	r17, 0x00	; 0
     196:	c1 eb       	ldi	r28, 0xB1	; 177
     198:	d0 e0       	ldi	r29, 0x00	; 0
     19a:	04 c0       	rjmp	.+8      	; 0x1a4 <__do_global_ctors+0x10>
     19c:	21 97       	sbiw	r28, 0x01	; 1
     19e:	fe 01       	movw	r30, r28
     1a0:	0e 94 44 12 	call	0x2488	; 0x2488 <__tablejump2__>
     1a4:	cd 3a       	cpi	r28, 0xAD	; 173
     1a6:	d1 07       	cpc	r29, r17
     1a8:	c9 f7       	brne	.-14     	; 0x19c <__do_global_ctors+0x8>
     1aa:	0e 94 dc 0c 	call	0x19b8	; 0x19b8 <main>
     1ae:	0c 94 1f 15 	jmp	0x2a3e	; 0x2a3e <_exit>

000001b2 <__bad_interrupt>:
     1b2:	0c 94 00 00 	jmp	0	; 0x0 <__vectors>

000001b6 <_Z15sonar_echoCheckv>:
		sonar.ping_timer(sonar_echoCheck); // Send out the ping, calls "sonar_echoCheck" function every 24uS where you can check the ping status.
	}

}

void sonar_echoCheck(void) { // Timer2 interrupt calls this function every 24uS where you can check the ping status.
     1b6:	0f 93       	push	r16
     1b8:	1f 93       	push	r17
     1ba:	cf 93       	push	r28
     1bc:	df 93       	push	r29
     1be:	cd b7       	in	r28, 0x3d	; 61
     1c0:	de b7       	in	r29, 0x3e	; 62
     1c2:	2c 97       	sbiw	r28, 0x0c	; 12
     1c4:	0f b6       	in	r0, 0x3f	; 63
     1c6:	f8 94       	cli
     1c8:	de bf       	out	0x3e, r29	; 62
     1ca:	0f be       	out	0x3f, r0	; 63
     1cc:	cd bf       	out	0x3d, r28	; 61
	if (sonar.check_timer()) {
     1ce:	86 e3       	ldi	r24, 0x36	; 54
     1d0:	91 e0       	ldi	r25, 0x01	; 1
     1d2:	0e 94 7f 06 	call	0xcfe	; 0xcfe <_ZN7NewPing11check_timerEv>
     1d6:	88 23       	and	r24, r24
     1d8:	09 f4       	brne	.+2      	; 0x1dc <_Z15sonar_echoCheckv+0x26>
     1da:	41 c0       	rjmp	.+130    	; 0x25e <_Z15sonar_echoCheckv+0xa8>
		// –í –±–∏–±–ª–∏–æ—Ç–µ–∫–µ –¥–æ—Ä–∞–±–æ—Ç–∫–∞ - –≤–æ–∑–≤—Ä–∞—Ç –∏–∑ check_timer() —Å true –ø—Ä–∏ —Ç–∞–π–º–∞—É—Ç–µ —Å –≤–æ–∑–≤—Ä–∞—Ç–æ–º ping_result
		servo_h_distances[servo_h_position] = sonar.ping_result / US_ROUNDTRIP_CM;
     1dc:	00 91 61 01 	lds	r16, 0x0161	; 0x800161 <servo_h_position>
     1e0:	10 e0       	ldi	r17, 0x00	; 0
     1e2:	0e 59       	subi	r16, 0x9E	; 158
     1e4:	1e 4f       	sbci	r17, 0xFE	; 254
     1e6:	60 91 36 01 	lds	r22, 0x0136	; 0x800136 <sonar>
     1ea:	70 91 37 01 	lds	r23, 0x0137	; 0x800137 <sonar+0x1>
     1ee:	80 91 38 01 	lds	r24, 0x0138	; 0x800138 <sonar+0x2>
     1f2:	90 91 39 01 	lds	r25, 0x0139	; 0x800139 <sonar+0x3>
     1f6:	29 e3       	ldi	r18, 0x39	; 57
     1f8:	30 e0       	ldi	r19, 0x00	; 0
     1fa:	40 e0       	ldi	r20, 0x00	; 0
     1fc:	50 e0       	ldi	r21, 0x00	; 0
     1fe:	0e 94 f8 11 	call	0x23f0	; 0x23f0 <__udivmodsi4>
     202:	f8 01       	movw	r30, r16
     204:	20 83       	st	Z, r18
		//isSonarEchoChecked = true;
		//isSonarStartMeasure = false;
		servo_doRotate = true;
     206:	81 e0       	ldi	r24, 0x01	; 1
     208:	80 93 5c 01 	sts	0x015C, r24	; 0x80015c <servo_doRotate>

		Serial.print(F("Sonar distance: "));
     20c:	6b e6       	ldi	r22, 0x6B	; 107
     20e:	70 e0       	ldi	r23, 0x00	; 0
     210:	82 e9       	ldi	r24, 0x92	; 146
     212:	91 e0       	ldi	r25, 0x01	; 1
     214:	0e 94 2b 0d 	call	0x1a56	; 0x1a56 <_ZN5Print5printEPK19__FlashStringHelper>
		Serial.println(String(sonar_distance) + F("cm"));
     218:	60 91 30 01 	lds	r22, 0x0130	; 0x800130 <sonar_distance>
     21c:	70 91 31 01 	lds	r23, 0x0131	; 0x800131 <sonar_distance+0x1>
     220:	4a e0       	ldi	r20, 0x0A	; 10
     222:	ce 01       	movw	r24, r28
     224:	01 96       	adiw	r24, 0x01	; 1
     226:	0e 94 aa 10 	call	0x2154	; 0x2154 <_ZN6StringC1Eih>
};

class StringSumHelper : public String
{
public:
	StringSumHelper(const String &s) : String(s) {}
     22a:	be 01       	movw	r22, r28
     22c:	6f 5f       	subi	r22, 0xFF	; 255
     22e:	7f 4f       	sbci	r23, 0xFF	; 255
     230:	ce 01       	movw	r24, r28
     232:	07 96       	adiw	r24, 0x07	; 7
     234:	0e 94 5d 10 	call	0x20ba	; 0x20ba <_ZN6StringC1ERKS_>
     238:	68 e6       	ldi	r22, 0x68	; 104
     23a:	70 e0       	ldi	r23, 0x00	; 0
     23c:	ce 01       	movw	r24, r28
     23e:	07 96       	adiw	r24, 0x07	; 7
     240:	0e 94 a5 11 	call	0x234a	; 0x234a <_ZplRK15StringSumHelperPK19__FlashStringHelper>
     244:	bc 01       	movw	r22, r24
     246:	82 e9       	ldi	r24, 0x92	; 146
     248:	91 e0       	ldi	r25, 0x01	; 1
     24a:	0e 94 73 0d 	call	0x1ae6	; 0x1ae6 <_ZN5Print7printlnERK6String>
       #if __cplusplus >= 201103L || defined(__GXX_EXPERIMENTAL_CXX0X__)
	void move(String &rhs);
	#endif
};

class StringSumHelper : public String
     24e:	ce 01       	movw	r24, r28
     250:	07 96       	adiw	r24, 0x07	; 7
     252:	0e 94 b7 0f 	call	0x1f6e	; 0x1f6e <_ZN6StringD1Ev>
     256:	ce 01       	movw	r24, r28
     258:	01 96       	adiw	r24, 0x01	; 1
     25a:	0e 94 b7 0f 	call	0x1f6e	; 0x1f6e <_ZN6StringD1Ev>
	}
}
     25e:	2c 96       	adiw	r28, 0x0c	; 12
     260:	0f b6       	in	r0, 0x3f	; 63
     262:	f8 94       	cli
     264:	de bf       	out	0x3e, r29	; 62
     266:	0f be       	out	0x3f, r0	; 63
     268:	cd bf       	out	0x3d, r28	; 61
     26a:	df 91       	pop	r29
     26c:	cf 91       	pop	r28
     26e:	1f 91       	pop	r17
     270:	0f 91       	pop	r16
     272:	08 95       	ret

00000274 <setup>:
//=====================================================================================================================================
void setup()
{
	//wdt_disable();

	SerialInit();
     274:	0e 94 31 07 	call	0xe62	; 0xe62 <_Z10SerialInitv>
	

	pinMode(LED_BUILTIN, OUTPUT);
     278:	61 e0       	ldi	r22, 0x01	; 1
     27a:	8d e0       	ldi	r24, 0x0D	; 13
     27c:	0e 94 0a 0f 	call	0x1e14	; 0x1e14 <pinMode>

	pinMode(PIN_RESET, OUTPUT);
     280:	61 e0       	ldi	r22, 0x01	; 1
     282:	8e e0       	ldi	r24, 0x0E	; 14
     284:	0e 94 0a 0f 	call	0x1e14	; 0x1e14 <pinMode>
	digitalWrite(PIN_RESET, 1);
     288:	61 e0       	ldi	r22, 0x01	; 1
     28a:	8e e0       	ldi	r24, 0x0E	; 14
     28c:	0e 94 46 0f 	call	0x1e8c	; 0x1e8c <digitalWrite>

	motors_correctspeed(-3);
     290:	8d ef       	ldi	r24, 0xFD	; 253
     292:	9f ef       	ldi	r25, 0xFF	; 255
     294:	0e 94 2c 03 	call	0x658	; 0x658 <_Z19motors_correctspeedi>
	delay(200);
	servo_h.detach();
	isServoPositioned = true;
	*/

	servo_v.attach(SERVO_V_PIN);
     298:	6a e0       	ldi	r22, 0x0A	; 10
     29a:	70 e0       	ldi	r23, 0x00	; 0
     29c:	86 e6       	ldi	r24, 0x66	; 102
     29e:	91 e0       	ldi	r25, 0x01	; 1
     2a0:	0e 94 7c 0a 	call	0x14f8	; 0x14f8 <_ZN5Servo6attachEi>
	servo_v.write(60);		// 100 - max?
     2a4:	6c e3       	ldi	r22, 0x3C	; 60
     2a6:	70 e0       	ldi	r23, 0x00	; 0
     2a8:	86 e6       	ldi	r24, 0x66	; 102
     2aa:	91 e0       	ldi	r25, 0x01	; 1
     2ac:	0e 94 c5 0a 	call	0x158a	; 0x158a <_ZN5Servo5writeEi>
	delay(200);
     2b0:	68 ec       	ldi	r22, 0xC8	; 200
     2b2:	70 e0       	ldi	r23, 0x00	; 0
     2b4:	80 e0       	ldi	r24, 0x00	; 0
     2b6:	90 e0       	ldi	r25, 0x00	; 0
     2b8:	0e 94 00 0e 	call	0x1c00	; 0x1c00 <delay>
	servo_v.detach();
     2bc:	86 e6       	ldi	r24, 0x66	; 102
     2be:	91 e0       	ldi	r25, 0x01	; 1
     2c0:	0e 94 82 0a 	call	0x1504	; 0x1504 <_ZN5Servo6detachEv>

	sonar_pingTimer = millis();
     2c4:	0e 94 cf 0d 	call	0x1b9e	; 0x1b9e <millis>
     2c8:	60 93 32 01 	sts	0x0132, r22	; 0x800132 <sonar_pingTimer>
     2cc:	70 93 33 01 	sts	0x0133, r23	; 0x800133 <sonar_pingTimer+0x1>
     2d0:	80 93 34 01 	sts	0x0134, r24	; 0x800134 <sonar_pingTimer+0x2>
     2d4:	90 93 35 01 	sts	0x0135, r25	; 0x800135 <sonar_pingTimer+0x3>
	servo_h_rotationTimer = millis();
     2d8:	0e 94 cf 0d 	call	0x1b9e	; 0x1b9e <millis>
     2dc:	60 93 5d 01 	sts	0x015D, r22	; 0x80015d <servo_h_rotationTimer>
     2e0:	70 93 5e 01 	sts	0x015E, r23	; 0x80015e <servo_h_rotationTimer+0x1>
     2e4:	80 93 5f 01 	sts	0x015F, r24	; 0x80015f <servo_h_rotationTimer+0x2>
     2e8:	90 93 60 01 	sts	0x0160, r25	; 0x800160 <servo_h_rotationTimer+0x3>
	barrierdetect_Timer = millis();
     2ec:	0e 94 cf 0d 	call	0x1b9e	; 0x1b9e <millis>
     2f0:	60 93 2c 01 	sts	0x012C, r22	; 0x80012c <__data_end>
     2f4:	70 93 2d 01 	sts	0x012D, r23	; 0x80012d <__data_end+0x1>
     2f8:	80 93 2e 01 	sts	0x012E, r24	; 0x80012e <__data_end+0x2>
     2fc:	90 93 2f 01 	sts	0x012F, r25	; 0x80012f <__data_end+0x3>
     300:	08 95       	ret

00000302 <_Z21Task_BarrierDetectionv>:

//==============================================================


//==============================================================
void Task_BarrierDetection(void){
     302:	0f 93       	push	r16
     304:	1f 93       	push	r17
     306:	cf 93       	push	r28

	if (millis() >= barrierdetect_Timer) {
     308:	0e 94 cf 0d 	call	0x1b9e	; 0x1b9e <millis>
     30c:	00 91 2c 01 	lds	r16, 0x012C	; 0x80012c <__data_end>
     310:	10 91 2d 01 	lds	r17, 0x012D	; 0x80012d <__data_end+0x1>
     314:	20 91 2e 01 	lds	r18, 0x012E	; 0x80012e <__data_end+0x2>
     318:	30 91 2f 01 	lds	r19, 0x012F	; 0x80012f <__data_end+0x3>
     31c:	60 17       	cp	r22, r16
     31e:	71 07       	cpc	r23, r17
     320:	82 07       	cpc	r24, r18
     322:	93 07       	cpc	r25, r19
     324:	08 f4       	brcc	.+2      	; 0x328 <_Z21Task_BarrierDetectionv+0x26>
     326:	55 c0       	rjmp	.+170    	; 0x3d2 <_Z21Task_BarrierDetectionv+0xd0>
		barrierdetect_Timer += BARRIERDETECT_DELAY;
     328:	d9 01       	movw	r26, r18
     32a:	c8 01       	movw	r24, r16
     32c:	c2 96       	adiw	r24, 0x32	; 50
     32e:	a1 1d       	adc	r26, r1
     330:	b1 1d       	adc	r27, r1
     332:	80 93 2c 01 	sts	0x012C, r24	; 0x80012c <__data_end>
     336:	90 93 2d 01 	sts	0x012D, r25	; 0x80012d <__data_end+0x1>
     33a:	a0 93 2e 01 	sts	0x012E, r26	; 0x80012e <__data_end+0x2>
     33e:	b0 93 2f 01 	sts	0x012F, r27	; 0x80012f <__data_end+0x3>

		int sonar_distance_aver;
		sonar_distance = SONAR_MAX_DISTANCE;
     342:	88 ec       	ldi	r24, 0xC8	; 200
     344:	90 e0       	ldi	r25, 0x00	; 0
     346:	90 93 31 01 	sts	0x0131, r25	; 0x800131 <sonar_distance+0x1>
     34a:	80 93 30 01 	sts	0x0130, r24	; 0x800130 <sonar_distance>
		// –ù–∞–π–¥–µ–º –º–∏–Ω–∏–º–∞–ª—å–Ω–æ–µ –∑–Ω–∞—á–µ–Ω–∏–µ
		for (uint8_t i=0;i<servo_positions_cnt();i++){
     34e:	c0 e0       	ldi	r28, 0x00	; 0
     350:	0e 94 ff 07 	call	0xffe	; 0xffe <_Z19servo_positions_cntv>
     354:	c8 17       	cp	r28, r24
     356:	98 f4       	brcc	.+38     	; 0x37e <_Z21Task_BarrierDetectionv+0x7c>
			if (servo_h_distances[i] < sonar_distance) sonar_distance = servo_h_distances[i];
     358:	ec 2f       	mov	r30, r28
     35a:	f0 e0       	ldi	r31, 0x00	; 0
     35c:	ee 59       	subi	r30, 0x9E	; 158
     35e:	fe 4f       	sbci	r31, 0xFE	; 254
     360:	80 81       	ld	r24, Z
     362:	90 e0       	ldi	r25, 0x00	; 0
     364:	20 91 30 01 	lds	r18, 0x0130	; 0x800130 <sonar_distance>
     368:	30 91 31 01 	lds	r19, 0x0131	; 0x800131 <sonar_distance+0x1>
     36c:	82 17       	cp	r24, r18
     36e:	93 07       	cpc	r25, r19
     370:	24 f4       	brge	.+8      	; 0x37a <_Z21Task_BarrierDetectionv+0x78>
     372:	90 93 31 01 	sts	0x0131, r25	; 0x800131 <sonar_distance+0x1>
     376:	80 93 30 01 	sts	0x0130, r24	; 0x800130 <sonar_distance>
		barrierdetect_Timer += BARRIERDETECT_DELAY;

		int sonar_distance_aver;
		sonar_distance = SONAR_MAX_DISTANCE;
		// –ù–∞–π–¥–µ–º –º–∏–Ω–∏–º–∞–ª—å–Ω–æ–µ –∑–Ω–∞—á–µ–Ω–∏–µ
		for (uint8_t i=0;i<servo_positions_cnt();i++){
     37a:	cf 5f       	subi	r28, 0xFF	; 255
     37c:	e9 cf       	rjmp	.-46     	; 0x350 <_Z21Task_BarrierDetectionv+0x4e>
			if (servo_h_distances[i] < sonar_distance) sonar_distance = servo_h_distances[i];
		}

		if (sonar_distance >= BARRIERDETECT_DISTANCE_MAX){
     37e:	80 91 30 01 	lds	r24, 0x0130	; 0x800130 <sonar_distance>
     382:	90 91 31 01 	lds	r25, 0x0131	; 0x800131 <sonar_distance+0x1>
     386:	84 36       	cpi	r24, 0x64	; 100
     388:	91 05       	cpc	r25, r1
     38a:	24 f0       	brlt	.+8      	; 0x394 <_Z21Task_BarrierDetectionv+0x92>
			motors_set_max_speed(get_motors_max_speed(), false);
     38c:	0e 94 29 03 	call	0x652	; 0x652 <_Z20get_motors_max_speedv>
     390:	60 e0       	ldi	r22, 0x00	; 0
     392:	1a c0       	rjmp	.+52     	; 0x3c8 <_Z21Task_BarrierDetectionv+0xc6>
		}
		else if (sonar_distance < BARRIERDETECT_DISTANCE_MIN && get_motors_max_speed() > BARRIERDETECT_SPEED_MIN) {
     394:	80 91 30 01 	lds	r24, 0x0130	; 0x800130 <sonar_distance>
     398:	90 91 31 01 	lds	r25, 0x0131	; 0x800131 <sonar_distance+0x1>
     39c:	c2 97       	sbiw	r24, 0x32	; 50
     39e:	3c f4       	brge	.+14     	; 0x3ae <_Z21Task_BarrierDetectionv+0xac>
     3a0:	0e 94 29 03 	call	0x652	; 0x652 <_Z20get_motors_max_speedv>
     3a4:	87 39       	cpi	r24, 0x97	; 151
     3a6:	18 f0       	brcs	.+6      	; 0x3ae <_Z21Task_BarrierDetectionv+0xac>
			motors_set_max_speed(BARRIERDETECT_SPEED_MIN, true);
     3a8:	61 e0       	ldi	r22, 0x01	; 1
     3aa:	86 e9       	ldi	r24, 0x96	; 150
     3ac:	0d c0       	rjmp	.+26     	; 0x3c8 <_Z21Task_BarrierDetectionv+0xc6>
		}
		else if (sonar_distance < BARRIERDETECT_DISTANCE_MAX && get_motors_max_speed() > BARRIERDETECT_SPEED_MID) {
     3ae:	80 91 30 01 	lds	r24, 0x0130	; 0x800130 <sonar_distance>
     3b2:	90 91 31 01 	lds	r25, 0x0131	; 0x800131 <sonar_distance+0x1>
     3b6:	84 36       	cpi	r24, 0x64	; 100
     3b8:	91 05       	cpc	r25, r1
     3ba:	5c f4       	brge	.+22     	; 0x3d2 <_Z21Task_BarrierDetectionv+0xd0>
     3bc:	0e 94 29 03 	call	0x652	; 0x652 <_Z20get_motors_max_speedv>
     3c0:	86 3c       	cpi	r24, 0xC6	; 198
     3c2:	38 f0       	brcs	.+14     	; 0x3d2 <_Z21Task_BarrierDetectionv+0xd0>
			motors_set_max_speed(BARRIERDETECT_SPEED_MID, true);
     3c4:	61 e0       	ldi	r22, 0x01	; 1
     3c6:	85 ec       	ldi	r24, 0xC5	; 197
		}
	}
}
     3c8:	cf 91       	pop	r28
     3ca:	1f 91       	pop	r17
     3cc:	0f 91       	pop	r16
		}
		else if (sonar_distance < BARRIERDETECT_DISTANCE_MIN && get_motors_max_speed() > BARRIERDETECT_SPEED_MIN) {
			motors_set_max_speed(BARRIERDETECT_SPEED_MIN, true);
		}
		else if (sonar_distance < BARRIERDETECT_DISTANCE_MAX && get_motors_max_speed() > BARRIERDETECT_SPEED_MID) {
			motors_set_max_speed(BARRIERDETECT_SPEED_MID, true);
     3ce:	0c 94 19 03 	jmp	0x632	; 0x632 <_Z20motors_set_max_speedhb>
		}
	}
}
     3d2:	cf 91       	pop	r28
     3d4:	1f 91       	pop	r17
     3d6:	0f 91       	pop	r16
     3d8:	08 95       	ret

000003da <_Z17Task_SonarHandlerv>:

//==============================================================
void Task_SonarHandler(void){
     3da:	cf 92       	push	r12
     3dc:	df 92       	push	r13
     3de:	ef 92       	push	r14
     3e0:	ff 92       	push	r15

	if (millis() >= sonar_pingTimer && servo_isWaiting) {
     3e2:	0e 94 cf 0d 	call	0x1b9e	; 0x1b9e <millis>
     3e6:	c0 90 32 01 	lds	r12, 0x0132	; 0x800132 <sonar_pingTimer>
     3ea:	d0 90 33 01 	lds	r13, 0x0133	; 0x800133 <sonar_pingTimer+0x1>
     3ee:	e0 90 34 01 	lds	r14, 0x0134	; 0x800134 <sonar_pingTimer+0x2>
     3f2:	f0 90 35 01 	lds	r15, 0x0135	; 0x800135 <sonar_pingTimer+0x3>
     3f6:	6c 15       	cp	r22, r12
     3f8:	7d 05       	cpc	r23, r13
     3fa:	8e 05       	cpc	r24, r14
     3fc:	9f 05       	cpc	r25, r15
     3fe:	f8 f0       	brcs	.+62     	; 0x43e <__LOCK_REGION_LENGTH__+0x3e>
     400:	20 91 5b 01 	lds	r18, 0x015B	; 0x80015b <servo_isWaiting>
     404:	22 23       	and	r18, r18
     406:	d9 f0       	breq	.+54     	; 0x43e <__LOCK_REGION_LENGTH__+0x3e>
		sonar_pingTimer += SONAR_PING_DELAY;
     408:	d7 01       	movw	r26, r14
     40a:	c6 01       	movw	r24, r12
     40c:	c2 96       	adiw	r24, 0x32	; 50
     40e:	a1 1d       	adc	r26, r1
     410:	b1 1d       	adc	r27, r1
     412:	80 93 32 01 	sts	0x0132, r24	; 0x800132 <sonar_pingTimer>
     416:	90 93 33 01 	sts	0x0133, r25	; 0x800133 <sonar_pingTimer+0x1>
     41a:	a0 93 34 01 	sts	0x0134, r26	; 0x800134 <sonar_pingTimer+0x2>
     41e:	b0 93 35 01 	sts	0x0135, r27	; 0x800135 <sonar_pingTimer+0x3>
		//isSonarStartMeasure = false;
		//isSonarEchoChecked = false;
		servo_doRotate = false;
     422:	10 92 5c 01 	sts	0x015C, r1	; 0x80015c <servo_doRotate>
		sonar.ping_timer(sonar_echoCheck); // Send out the ping, calls "sonar_echoCheck" function every 24uS where you can check the ping status.
     426:	40 e0       	ldi	r20, 0x00	; 0
     428:	50 e0       	ldi	r21, 0x00	; 0
     42a:	6b ed       	ldi	r22, 0xDB	; 219
     42c:	70 e0       	ldi	r23, 0x00	; 0
     42e:	86 e3       	ldi	r24, 0x36	; 54
     430:	91 e0       	ldi	r25, 0x01	; 1
	}

}
     432:	ff 90       	pop	r15
     434:	ef 90       	pop	r14
     436:	df 90       	pop	r13
     438:	cf 90       	pop	r12
	if (millis() >= sonar_pingTimer && servo_isWaiting) {
		sonar_pingTimer += SONAR_PING_DELAY;
		//isSonarStartMeasure = false;
		//isSonarEchoChecked = false;
		servo_doRotate = false;
		sonar.ping_timer(sonar_echoCheck); // Send out the ping, calls "sonar_echoCheck" function every 24uS where you can check the ping status.
     43a:	0c 94 eb 06 	jmp	0xdd6	; 0xdd6 <_ZN7NewPing10ping_timerEPFvvEj>
	}

}
     43e:	ff 90       	pop	r15
     440:	ef 90       	pop	r14
     442:	df 90       	pop	r13
     444:	cf 90       	pop	r12
     446:	08 95       	ret

00000448 <loop>:
	barrierdetect_Timer = millis();
}

void loop()
{
	Task_SerialHandler();
     448:	0e 94 7d 07 	call	0xefa	; 0xefa <_Z18Task_SerialHandlerv>
	Task_SonarHandler();
     44c:	0e 94 ed 01 	call	0x3da	; 0x3da <_Z17Task_SonarHandlerv>
	Task_ServoHandler();
     450:	0e 94 13 08 	call	0x1026	; 0x1026 <_Z17Task_ServoHandlerv>
	Task_BarrierDetection();
     454:	0c 94 81 01 	jmp	0x302	; 0x302 <_Z21Task_BarrierDetectionv>

00000458 <_GLOBAL__sub_I_sonar>:
//====== SONAR (SR04) ========================================
#if (!defined (SONAR_TRIGGER_PIN)) || (!defined SONAR_ECHO_PIN)
#error "SONAR Pins not defined!"
#endif
#define SONAR_MAX_DISTANCE 200	// Maximum distance we want to ping for (in centimeters). Maximum sensor distance is rated at 400-500cm.
NewPing sonar(SONAR_TRIGGER_PIN, SONAR_ECHO_PIN, SONAR_MAX_DISTANCE);
     458:	28 ec       	ldi	r18, 0xC8	; 200
     45a:	30 e0       	ldi	r19, 0x00	; 0
     45c:	4f e0       	ldi	r20, 0x0F	; 15
     45e:	60 e1       	ldi	r22, 0x10	; 16
     460:	86 e3       	ldi	r24, 0x36	; 54
     462:	91 e0       	ldi	r25, 0x01	; 1
     464:	0c 94 36 06 	jmp	0xc6c	; 0xc6c <_ZN7NewPingC1Ehhj>

00000468 <_ZN5Motor9get_speedEv>:
	analogWrite(PIN_SPEED, get_realspeed());
}

uint8_t Motor::get_speed(void){
	return Speed;	
}
     468:	fc 01       	movw	r30, r24
     46a:	82 81       	ldd	r24, Z+2	; 0x02
     46c:	08 95       	ret

0000046e <_ZN5Motor13get_max_speedEv>:
	if (Speed > MaxSpeed) set_speed(MaxSpeed);
}

uint8_t Motor::get_max_speed(void){
	return MaxSpeed;
}
     46e:	fc 01       	movw	r30, r24
     470:	85 81       	ldd	r24, Z+5	; 0x05
     472:	08 95       	ret

00000474 <_ZN5Motor13set_directionEb>:

void Motor::set_direction(boolean dir)
{
     474:	fc 01       	movw	r30, r24
	Direction = dir;
     476:	66 83       	std	Z+6, r22	; 0x06
	if (Direction==MOTOR_DIR_FORWARD)	
     478:	66 23       	and	r22, r22
     47a:	11 f0       	breq	.+4      	; 0x480 <_ZN5Motor13set_directionEb+0xc>
		digitalWrite (PIN_DIR, HIGH);
     47c:	61 e0       	ldi	r22, 0x01	; 1
     47e:	01 c0       	rjmp	.+2      	; 0x482 <_ZN5Motor13set_directionEb+0xe>
	else
		digitalWrite (PIN_DIR, LOW);
     480:	60 e0       	ldi	r22, 0x00	; 0
     482:	80 81       	ld	r24, Z
     484:	0c 94 46 0f 	jmp	0x1e8c	; 0x1e8c <digitalWrite>

00000488 <_ZN5Motor13get_directionEv>:
}

boolean Motor::get_direction(void){
	return Direction;
}
     488:	fc 01       	movw	r30, r24
     48a:	86 81       	ldd	r24, Z+6	; 0x06
     48c:	08 95       	ret

0000048e <_ZN5Motor14get_speed_corrEv>:
}

uint8_t Motor::get_speed_corr(void)
{
	return SpeedCorrection;
}
     48e:	fc 01       	movw	r30, r24
     490:	83 81       	ldd	r24, Z+3	; 0x03
     492:	08 95       	ret

00000494 <_ZN5Motor13get_realspeedEv>:
		else set_speed(Speed-step);
	}
}
	
int Motor::get_realspeed(void){	
	if (Speed == 0) return 0;
     494:	fc 01       	movw	r30, r24
     496:	22 81       	ldd	r18, Z+2	; 0x02
     498:	22 23       	and	r18, r18
     49a:	31 f0       	breq	.+12     	; 0x4a8 <_ZN5Motor13get_realspeedEv+0x14>
	else return Speed + get_speed_corr();
     49c:	83 81       	ldd	r24, Z+3	; 0x03
     49e:	94 81       	ldd	r25, Z+4	; 0x04
     4a0:	99 27       	eor	r25, r25
     4a2:	82 0f       	add	r24, r18
     4a4:	91 1d       	adc	r25, r1
     4a6:	08 95       	ret
		else set_speed(Speed-step);
	}
}
	
int Motor::get_realspeed(void){	
	if (Speed == 0) return 0;
     4a8:	80 e0       	ldi	r24, 0x00	; 0
     4aa:	90 e0       	ldi	r25, 0x00	; 0
	else return Speed + get_speed_corr();
}
     4ac:	08 95       	ret

000004ae <_ZN5Motor9set_speedEh>:
	set_direction(MOTOR_DIR_FORWARD);
	set_speed(0);
} //Motor

void Motor::set_speed(uint8_t spd)
{
     4ae:	cf 93       	push	r28
     4b0:	df 93       	push	r29
     4b2:	ec 01       	movw	r28, r24
	Speed = spd;
     4b4:	6a 83       	std	Y+2, r22	; 0x02
	analogWrite(PIN_SPEED, get_realspeed());
     4b6:	0e 94 4a 02 	call	0x494	; 0x494 <_ZN5Motor13get_realspeedEv>
     4ba:	bc 01       	movw	r22, r24
     4bc:	89 81       	ldd	r24, Y+1	; 0x01
}
     4be:	df 91       	pop	r29
     4c0:	cf 91       	pop	r28
} //Motor

void Motor::set_speed(uint8_t spd)
{
	Speed = spd;
	analogWrite(PIN_SPEED, get_realspeed());
     4c2:	0c 94 82 0e 	jmp	0x1d04	; 0x1d04 <analogWrite>

000004c6 <_ZN5MotorC1Ehh>:
#include <Arduino.h>

#include "Motor.h"


Motor::Motor(uint8_t pin_dir, uint8_t pin_spd)
     4c6:	1f 93       	push	r17
     4c8:	cf 93       	push	r28
     4ca:	df 93       	push	r29
     4cc:	ec 01       	movw	r28, r24
     4ce:	86 2f       	mov	r24, r22
     4d0:	1a 82       	std	Y+2, r1	; 0x02
     4d2:	1c 82       	std	Y+4, r1	; 0x04
     4d4:	1b 82       	std	Y+3, r1	; 0x03
     4d6:	95 ef       	ldi	r25, 0xF5	; 245
     4d8:	9d 83       	std	Y+5, r25	; 0x05
     4da:	11 e0       	ldi	r17, 0x01	; 1
     4dc:	1e 83       	std	Y+6, r17	; 0x06
{
	PIN_DIR = pin_dir;
     4de:	68 83       	st	Y, r22
	PIN_SPEED = pin_spd;
     4e0:	49 83       	std	Y+1, r20	; 0x01
	
	pinMode (PIN_DIR, OUTPUT);
     4e2:	61 e0       	ldi	r22, 0x01	; 1
     4e4:	0e 94 0a 0f 	call	0x1e14	; 0x1e14 <pinMode>
	pinMode (PIN_SPEED, OUTPUT);
     4e8:	61 e0       	ldi	r22, 0x01	; 1
     4ea:	89 81       	ldd	r24, Y+1	; 0x01
     4ec:	0e 94 0a 0f 	call	0x1e14	; 0x1e14 <pinMode>
	return MaxSpeed;
}

void Motor::set_direction(boolean dir)
{
	Direction = dir;
     4f0:	1e 83       	std	Y+6, r17	; 0x06
	if (Direction==MOTOR_DIR_FORWARD)	
		digitalWrite (PIN_DIR, HIGH);
     4f2:	61 e0       	ldi	r22, 0x01	; 1
     4f4:	88 81       	ld	r24, Y
     4f6:	0e 94 46 0f 	call	0x1e8c	; 0x1e8c <digitalWrite>
	PIN_SPEED = pin_spd;
	
	pinMode (PIN_DIR, OUTPUT);
	pinMode (PIN_SPEED, OUTPUT);
	set_direction(MOTOR_DIR_FORWARD);
	set_speed(0);
     4fa:	60 e0       	ldi	r22, 0x00	; 0
     4fc:	ce 01       	movw	r24, r28
} //Motor
     4fe:	df 91       	pop	r29
     500:	cf 91       	pop	r28
     502:	1f 91       	pop	r17
	PIN_SPEED = pin_spd;
	
	pinMode (PIN_DIR, OUTPUT);
	pinMode (PIN_SPEED, OUTPUT);
	set_direction(MOTOR_DIR_FORWARD);
	set_speed(0);
     504:	0c 94 57 02 	jmp	0x4ae	; 0x4ae <_ZN5Motor9set_speedEh>

00000508 <_ZN5Motor13set_max_speedEh>:
uint8_t Motor::get_speed(void){
	return Speed;	
}

void Motor::set_max_speed(uint8_t spd){
	MaxSpeed = spd;
     508:	fc 01       	movw	r30, r24
     50a:	65 83       	std	Z+5, r22	; 0x05
	if (Speed > MaxSpeed) set_speed(MaxSpeed);
     50c:	22 81       	ldd	r18, Z+2	; 0x02
     50e:	62 17       	cp	r22, r18
     510:	10 f4       	brcc	.+4      	; 0x516 <_ZN5Motor13set_max_speedEh+0xe>
     512:	0c 94 57 02 	jmp	0x4ae	; 0x4ae <_ZN5Motor9set_speedEh>
     516:	08 95       	ret

00000518 <_ZN5Motor14set_speed_corrEh>:
boolean Motor::get_direction(void){
	return Direction;
}

void Motor::set_speed_corr(uint8_t corr)
{
     518:	6b 30       	cpi	r22, 0x0B	; 11
     51a:	08 f0       	brcs	.+2      	; 0x51e <_ZN5Motor14set_speed_corrEh+0x6>
     51c:	6a e0       	ldi	r22, 0x0A	; 10
	if (corr > MOTOR_SPEED_CORR) corr = MOTOR_SPEED_CORR;
	SpeedCorrection = corr;
     51e:	70 e0       	ldi	r23, 0x00	; 0
     520:	fc 01       	movw	r30, r24
     522:	74 83       	std	Z+4, r23	; 0x04
     524:	63 83       	std	Z+3, r22	; 0x03
	set_speed(get_speed());		// ÔËÏÂÌËÏ ÍÓÂÍÚËÓ‚ÍÛ Í ÚÂÍÛ˘ÂÈ ÒÍÓÓÒÚË
     526:	62 81       	ldd	r22, Z+2	; 0x02
     528:	0c 94 57 02 	jmp	0x4ae	; 0x4ae <_ZN5Motor9set_speedEh>

0000052c <_ZN5Motor8speed_upEh>:
uint8_t Motor::get_speed_corr(void)
{
	return SpeedCorrection;
}

void Motor::speed_up(uint8_t step){
     52c:	fc 01       	movw	r30, r24
	if (Speed == 0) set_speed(MOTOR_SPEED_MIN);
     52e:	92 81       	ldd	r25, Z+2	; 0x02
     530:	91 11       	cpse	r25, r1
     532:	02 c0       	rjmp	.+4      	; 0x538 <_ZN5Motor8speed_upEh+0xc>
     534:	66 e9       	ldi	r22, 0x96	; 150
     536:	0a c0       	rjmp	.+20     	; 0x54c <_ZN5Motor8speed_upEh+0x20>
	else if (Speed + step <= MaxSpeed) set_speed(Speed+step);
     538:	46 2f       	mov	r20, r22
     53a:	50 e0       	ldi	r21, 0x00	; 0
     53c:	49 0f       	add	r20, r25
     53e:	51 1d       	adc	r21, r1
     540:	25 81       	ldd	r18, Z+5	; 0x05
     542:	30 e0       	ldi	r19, 0x00	; 0
     544:	24 17       	cp	r18, r20
     546:	35 07       	cpc	r19, r21
     548:	24 f0       	brlt	.+8      	; 0x552 <_ZN5Motor8speed_upEh+0x26>
     54a:	69 0f       	add	r22, r25
     54c:	cf 01       	movw	r24, r30
     54e:	0c 94 57 02 	jmp	0x4ae	; 0x4ae <_ZN5Motor9set_speedEh>
     552:	08 95       	ret

00000554 <_ZN5Motor10speed_downEh>:
}

void Motor::speed_down(uint8_t step){
	if (Speed != 0){
     554:	fc 01       	movw	r30, r24
     556:	42 81       	ldd	r20, Z+2	; 0x02
     558:	44 23       	and	r20, r20
     55a:	69 f0       	breq	.+26     	; 0x576 <_ZN5Motor10speed_downEh+0x22>
		if (Speed-step < MOTOR_SPEED_MIN) set_speed(0);
     55c:	24 2f       	mov	r18, r20
     55e:	30 e0       	ldi	r19, 0x00	; 0
     560:	26 1b       	sub	r18, r22
     562:	31 09       	sbc	r19, r1
     564:	26 39       	cpi	r18, 0x96	; 150
     566:	31 05       	cpc	r19, r1
     568:	14 f4       	brge	.+4      	; 0x56e <_ZN5Motor10speed_downEh+0x1a>
     56a:	60 e0       	ldi	r22, 0x00	; 0
     56c:	02 c0       	rjmp	.+4      	; 0x572 <_ZN5Motor10speed_downEh+0x1e>
		else set_speed(Speed-step);
     56e:	46 1b       	sub	r20, r22
     570:	64 2f       	mov	r22, r20
     572:	0c 94 57 02 	jmp	0x4ae	; 0x4ae <_ZN5Motor9set_speedEh>
     576:	08 95       	ret

00000578 <_Z15motors_speed_uphh>:
//========================================================
String motors_string_direction(void){
	String Str = F("Directions: ");
	Str += String(motor_right.get_direction()) + F(" ") + String(motor_left.get_direction());
	return Str;
}
     578:	1f 93       	push	r17
     57a:	cf 93       	push	r28
     57c:	df 93       	push	r29
     57e:	18 2f       	mov	r17, r24
     580:	d6 2f       	mov	r29, r22
     582:	80 e5       	ldi	r24, 0x50	; 80
     584:	91 e0       	ldi	r25, 0x01	; 1
     586:	0e 94 34 02 	call	0x468	; 0x468 <_ZN5Motor9get_speedEv>
     58a:	c8 2f       	mov	r28, r24
     58c:	89 e4       	ldi	r24, 0x49	; 73
     58e:	91 e0       	ldi	r25, 0x01	; 1
     590:	0e 94 34 02 	call	0x468	; 0x468 <_ZN5Motor9get_speedEv>
     594:	c8 13       	cpse	r28, r24
     596:	07 c0       	rjmp	.+14     	; 0x5a6 <_Z15motors_speed_uphh+0x2e>
     598:	61 2f       	mov	r22, r17
     59a:	80 e5       	ldi	r24, 0x50	; 80
     59c:	91 e0       	ldi	r25, 0x01	; 1
     59e:	0e 94 96 02 	call	0x52c	; 0x52c <_ZN5Motor8speed_upEh>
     5a2:	6d 2f       	mov	r22, r29
     5a4:	04 c0       	rjmp	.+8      	; 0x5ae <_Z15motors_speed_uphh+0x36>
     5a6:	8c 17       	cp	r24, r28
     5a8:	28 f4       	brcc	.+10     	; 0x5b4 <_Z15motors_speed_uphh+0x3c>
     5aa:	6c 2f       	mov	r22, r28
     5ac:	68 1b       	sub	r22, r24
     5ae:	89 e4       	ldi	r24, 0x49	; 73
     5b0:	91 e0       	ldi	r25, 0x01	; 1
     5b2:	04 c0       	rjmp	.+8      	; 0x5bc <_Z15motors_speed_uphh+0x44>
     5b4:	68 2f       	mov	r22, r24
     5b6:	6c 1b       	sub	r22, r28
     5b8:	80 e5       	ldi	r24, 0x50	; 80
     5ba:	91 e0       	ldi	r25, 0x01	; 1
     5bc:	df 91       	pop	r29
     5be:	cf 91       	pop	r28
     5c0:	1f 91       	pop	r17
     5c2:	0c 94 96 02 	jmp	0x52c	; 0x52c <_ZN5Motor8speed_upEh>

000005c6 <_Z17motors_speed_downhh>:
     5c6:	1f 93       	push	r17
     5c8:	cf 93       	push	r28
     5ca:	df 93       	push	r29
     5cc:	18 2f       	mov	r17, r24
     5ce:	d6 2f       	mov	r29, r22
     5d0:	80 e5       	ldi	r24, 0x50	; 80
     5d2:	91 e0       	ldi	r25, 0x01	; 1
     5d4:	0e 94 34 02 	call	0x468	; 0x468 <_ZN5Motor9get_speedEv>
     5d8:	c8 2f       	mov	r28, r24
     5da:	89 e4       	ldi	r24, 0x49	; 73
     5dc:	91 e0       	ldi	r25, 0x01	; 1
     5de:	0e 94 34 02 	call	0x468	; 0x468 <_ZN5Motor9get_speedEv>
     5e2:	c8 13       	cpse	r28, r24
     5e4:	07 c0       	rjmp	.+14     	; 0x5f4 <_Z17motors_speed_downhh+0x2e>
     5e6:	61 2f       	mov	r22, r17
     5e8:	80 e5       	ldi	r24, 0x50	; 80
     5ea:	91 e0       	ldi	r25, 0x01	; 1
     5ec:	0e 94 aa 02 	call	0x554	; 0x554 <_ZN5Motor10speed_downEh>
     5f0:	6d 2f       	mov	r22, r29
     5f2:	09 c0       	rjmp	.+18     	; 0x606 <_Z17motors_speed_downhh+0x40>
     5f4:	8c 17       	cp	r24, r28
     5f6:	28 f4       	brcc	.+10     	; 0x602 <_Z17motors_speed_downhh+0x3c>
     5f8:	6c 2f       	mov	r22, r28
     5fa:	68 1b       	sub	r22, r24
     5fc:	80 e5       	ldi	r24, 0x50	; 80
     5fe:	91 e0       	ldi	r25, 0x01	; 1
     600:	04 c0       	rjmp	.+8      	; 0x60a <_Z17motors_speed_downhh+0x44>
     602:	68 2f       	mov	r22, r24
     604:	6c 1b       	sub	r22, r28
     606:	89 e4       	ldi	r24, 0x49	; 73
     608:	91 e0       	ldi	r25, 0x01	; 1
     60a:	df 91       	pop	r29
     60c:	cf 91       	pop	r28
     60e:	1f 91       	pop	r17
     610:	0c 94 aa 02 	jmp	0x554	; 0x554 <_ZN5Motor10speed_downEh>

00000614 <_Z16motors_get_speedv>:
     614:	cf 93       	push	r28
     616:	80 e5       	ldi	r24, 0x50	; 80
     618:	91 e0       	ldi	r25, 0x01	; 1
     61a:	0e 94 34 02 	call	0x468	; 0x468 <_ZN5Motor9get_speedEv>
     61e:	c8 2f       	mov	r28, r24
     620:	89 e4       	ldi	r24, 0x49	; 73
     622:	91 e0       	ldi	r25, 0x01	; 1
     624:	0e 94 34 02 	call	0x468	; 0x468 <_ZN5Motor9get_speedEv>
     628:	8c 17       	cp	r24, r28
     62a:	08 f4       	brcc	.+2      	; 0x62e <_Z16motors_get_speedv+0x1a>
     62c:	8c 2f       	mov	r24, r28
     62e:	cf 91       	pop	r28
     630:	08 95       	ret

00000632 <_Z20motors_set_max_speedhb>:
     632:	61 11       	cpse	r22, r1
     634:	02 c0       	rjmp	.+4      	; 0x63a <_Z20motors_set_max_speedhb+0x8>
     636:	80 93 48 01 	sts	0x0148, r24	; 0x800148 <motors_max_speed>
     63a:	60 91 48 01 	lds	r22, 0x0148	; 0x800148 <motors_max_speed>
     63e:	80 e5       	ldi	r24, 0x50	; 80
     640:	91 e0       	ldi	r25, 0x01	; 1
     642:	0e 94 84 02 	call	0x508	; 0x508 <_ZN5Motor13set_max_speedEh>
     646:	60 91 48 01 	lds	r22, 0x0148	; 0x800148 <motors_max_speed>
     64a:	89 e4       	ldi	r24, 0x49	; 73
     64c:	91 e0       	ldi	r25, 0x01	; 1
     64e:	0c 94 84 02 	jmp	0x508	; 0x508 <_ZN5Motor13set_max_speedEh>

00000652 <_Z20get_motors_max_speedv>:
     652:	80 91 48 01 	lds	r24, 0x0148	; 0x800148 <motors_max_speed>
     656:	08 95       	ret

00000658 <_Z19motors_correctspeedi>:
     658:	ef 92       	push	r14
     65a:	ff 92       	push	r15
     65c:	0f 93       	push	r16
     65e:	1f 93       	push	r17
     660:	cf 93       	push	r28
     662:	df 93       	push	r29
     664:	00 97       	sbiw	r24, 0x00	; 0
     666:	b9 f1       	breq	.+110    	; 0x6d6 <_Z19motors_correctspeedi+0x7e>
     668:	7c 01       	movw	r14, r24
     66a:	89 e4       	ldi	r24, 0x49	; 73
     66c:	91 e0       	ldi	r25, 0x01	; 1
     66e:	0e 94 47 02 	call	0x48e	; 0x48e <_ZN5Motor14get_speed_corrEv>
     672:	08 2f       	mov	r16, r24
     674:	10 e0       	ldi	r17, 0x00	; 0
     676:	80 e5       	ldi	r24, 0x50	; 80
     678:	91 e0       	ldi	r25, 0x01	; 1
     67a:	0e 94 47 02 	call	0x48e	; 0x48e <_ZN5Motor14get_speed_corrEv>
     67e:	c8 2f       	mov	r28, r24
     680:	d0 e0       	ldi	r29, 0x00	; 0
     682:	f7 fe       	sbrs	r15, 7
     684:	0b c0       	rjmp	.+22     	; 0x69c <_Z19motors_correctspeedi+0x44>
     686:	01 15       	cp	r16, r1
     688:	11 05       	cpc	r17, r1
     68a:	29 f0       	breq	.+10     	; 0x696 <_Z19motors_correctspeedi+0x3e>
     68c:	0e 0d       	add	r16, r14
     68e:	1f 1d       	adc	r17, r15
     690:	17 ff       	sbrs	r17, 7
     692:	11 c0       	rjmp	.+34     	; 0x6b6 <_Z19motors_correctspeedi+0x5e>
     694:	09 c0       	rjmp	.+18     	; 0x6a8 <_Z19motors_correctspeedi+0x50>
     696:	ce 19       	sub	r28, r14
     698:	df 09       	sbc	r29, r15
     69a:	0d c0       	rjmp	.+26     	; 0x6b6 <_Z19motors_correctspeedi+0x5e>
     69c:	20 97       	sbiw	r28, 0x00	; 0
     69e:	49 f0       	breq	.+18     	; 0x6b2 <_Z19motors_correctspeedi+0x5a>
     6a0:	ce 19       	sub	r28, r14
     6a2:	df 09       	sbc	r29, r15
     6a4:	d7 ff       	sbrs	r29, 7
     6a6:	07 c0       	rjmp	.+14     	; 0x6b6 <_Z19motors_correctspeedi+0x5e>
     6a8:	c0 e0       	ldi	r28, 0x00	; 0
     6aa:	d0 e0       	ldi	r29, 0x00	; 0
     6ac:	00 e0       	ldi	r16, 0x00	; 0
     6ae:	10 e0       	ldi	r17, 0x00	; 0
     6b0:	02 c0       	rjmp	.+4      	; 0x6b6 <_Z19motors_correctspeedi+0x5e>
     6b2:	0e 0d       	add	r16, r14
     6b4:	1f 1d       	adc	r17, r15
     6b6:	60 2f       	mov	r22, r16
     6b8:	89 e4       	ldi	r24, 0x49	; 73
     6ba:	91 e0       	ldi	r25, 0x01	; 1
     6bc:	0e 94 8c 02 	call	0x518	; 0x518 <_ZN5Motor14set_speed_corrEh>
     6c0:	6c 2f       	mov	r22, r28
     6c2:	80 e5       	ldi	r24, 0x50	; 80
     6c4:	91 e0       	ldi	r25, 0x01	; 1
     6c6:	df 91       	pop	r29
     6c8:	cf 91       	pop	r28
     6ca:	1f 91       	pop	r17
     6cc:	0f 91       	pop	r16
     6ce:	ff 90       	pop	r15
     6d0:	ef 90       	pop	r14
     6d2:	0c 94 8c 02 	jmp	0x518	; 0x518 <_ZN5Motor14set_speed_corrEh>
     6d6:	df 91       	pop	r29
     6d8:	cf 91       	pop	r28
     6da:	1f 91       	pop	r17
     6dc:	0f 91       	pop	r16
     6de:	ff 90       	pop	r15
     6e0:	ef 90       	pop	r14
     6e2:	08 95       	ret

000006e4 <_Z17motors_go_forwardv>:
     6e4:	80 e5       	ldi	r24, 0x50	; 80
     6e6:	91 e0       	ldi	r25, 0x01	; 1
     6e8:	0e 94 44 02 	call	0x488	; 0x488 <_ZN5Motor13get_directionEv>
     6ec:	81 11       	cpse	r24, r1
     6ee:	05 c0       	rjmp	.+10     	; 0x6fa <_Z17motors_go_forwardv+0x16>
     6f0:	0e 94 0a 03 	call	0x614	; 0x614 <_Z16motors_get_speedv>
     6f4:	88 23       	and	r24, r24
     6f6:	39 f0       	breq	.+14     	; 0x706 <_Z17motors_go_forwardv+0x22>
     6f8:	14 c0       	rjmp	.+40     	; 0x722 <_Z17motors_go_forwardv+0x3e>
     6fa:	89 e4       	ldi	r24, 0x49	; 73
     6fc:	91 e0       	ldi	r25, 0x01	; 1
     6fe:	0e 94 44 02 	call	0x488	; 0x488 <_ZN5Motor13get_directionEv>
     702:	88 23       	and	r24, r24
     704:	a9 f3       	breq	.-22     	; 0x6f0 <_Z17motors_go_forwardv+0xc>
     706:	61 e0       	ldi	r22, 0x01	; 1
     708:	80 e5       	ldi	r24, 0x50	; 80
     70a:	91 e0       	ldi	r25, 0x01	; 1
     70c:	0e 94 3a 02 	call	0x474	; 0x474 <_ZN5Motor13set_directionEb>
     710:	61 e0       	ldi	r22, 0x01	; 1
     712:	89 e4       	ldi	r24, 0x49	; 73
     714:	91 e0       	ldi	r25, 0x01	; 1
     716:	0e 94 3a 02 	call	0x474	; 0x474 <_ZN5Motor13set_directionEb>
     71a:	65 e0       	ldi	r22, 0x05	; 5
     71c:	85 e0       	ldi	r24, 0x05	; 5
     71e:	0c 94 bc 02 	jmp	0x578	; 0x578 <_Z15motors_speed_uphh>
     722:	64 e1       	ldi	r22, 0x14	; 20
     724:	84 e1       	ldi	r24, 0x14	; 20
     726:	0c 94 e3 02 	jmp	0x5c6	; 0x5c6 <_Z17motors_speed_downhh>

0000072a <_Z26motors_go_forward_and_leftv>:
     72a:	80 e5       	ldi	r24, 0x50	; 80
     72c:	91 e0       	ldi	r25, 0x01	; 1
     72e:	0e 94 44 02 	call	0x488	; 0x488 <_ZN5Motor13get_directionEv>
     732:	81 11       	cpse	r24, r1
     734:	05 c0       	rjmp	.+10     	; 0x740 <_Z26motors_go_forward_and_leftv+0x16>
     736:	0e 94 0a 03 	call	0x614	; 0x614 <_Z16motors_get_speedv>
     73a:	88 23       	and	r24, r24
     73c:	39 f0       	breq	.+14     	; 0x74c <_Z26motors_go_forward_and_leftv+0x22>
     73e:	1a c0       	rjmp	.+52     	; 0x774 <_Z26motors_go_forward_and_leftv+0x4a>
     740:	89 e4       	ldi	r24, 0x49	; 73
     742:	91 e0       	ldi	r25, 0x01	; 1
     744:	0e 94 44 02 	call	0x488	; 0x488 <_ZN5Motor13get_directionEv>
     748:	88 23       	and	r24, r24
     74a:	a9 f3       	breq	.-22     	; 0x736 <_Z26motors_go_forward_and_leftv+0xc>
     74c:	61 e0       	ldi	r22, 0x01	; 1
     74e:	80 e5       	ldi	r24, 0x50	; 80
     750:	91 e0       	ldi	r25, 0x01	; 1
     752:	0e 94 3a 02 	call	0x474	; 0x474 <_ZN5Motor13set_directionEb>
     756:	61 e0       	ldi	r22, 0x01	; 1
     758:	89 e4       	ldi	r24, 0x49	; 73
     75a:	91 e0       	ldi	r25, 0x01	; 1
     75c:	0e 94 3a 02 	call	0x474	; 0x474 <_ZN5Motor13set_directionEb>
     760:	65 e0       	ldi	r22, 0x05	; 5
     762:	80 e5       	ldi	r24, 0x50	; 80
     764:	91 e0       	ldi	r25, 0x01	; 1
     766:	0e 94 96 02 	call	0x52c	; 0x52c <_ZN5Motor8speed_upEh>
     76a:	65 e0       	ldi	r22, 0x05	; 5
     76c:	89 e4       	ldi	r24, 0x49	; 73
     76e:	91 e0       	ldi	r25, 0x01	; 1
     770:	0c 94 aa 02 	jmp	0x554	; 0x554 <_ZN5Motor10speed_downEh>
     774:	64 e1       	ldi	r22, 0x14	; 20
     776:	84 e1       	ldi	r24, 0x14	; 20
     778:	0c 94 e3 02 	jmp	0x5c6	; 0x5c6 <_Z17motors_speed_downhh>

0000077c <_Z27motors_go_forward_and_rightv>:
     77c:	80 e5       	ldi	r24, 0x50	; 80
     77e:	91 e0       	ldi	r25, 0x01	; 1
     780:	0e 94 44 02 	call	0x488	; 0x488 <_ZN5Motor13get_directionEv>
     784:	81 11       	cpse	r24, r1
     786:	05 c0       	rjmp	.+10     	; 0x792 <_Z27motors_go_forward_and_rightv+0x16>
     788:	0e 94 0a 03 	call	0x614	; 0x614 <_Z16motors_get_speedv>
     78c:	88 23       	and	r24, r24
     78e:	39 f0       	breq	.+14     	; 0x79e <_Z27motors_go_forward_and_rightv+0x22>
     790:	1a c0       	rjmp	.+52     	; 0x7c6 <_Z27motors_go_forward_and_rightv+0x4a>
     792:	89 e4       	ldi	r24, 0x49	; 73
     794:	91 e0       	ldi	r25, 0x01	; 1
     796:	0e 94 44 02 	call	0x488	; 0x488 <_ZN5Motor13get_directionEv>
     79a:	88 23       	and	r24, r24
     79c:	a9 f3       	breq	.-22     	; 0x788 <_Z27motors_go_forward_and_rightv+0xc>
     79e:	61 e0       	ldi	r22, 0x01	; 1
     7a0:	80 e5       	ldi	r24, 0x50	; 80
     7a2:	91 e0       	ldi	r25, 0x01	; 1
     7a4:	0e 94 3a 02 	call	0x474	; 0x474 <_ZN5Motor13set_directionEb>
     7a8:	61 e0       	ldi	r22, 0x01	; 1
     7aa:	89 e4       	ldi	r24, 0x49	; 73
     7ac:	91 e0       	ldi	r25, 0x01	; 1
     7ae:	0e 94 3a 02 	call	0x474	; 0x474 <_ZN5Motor13set_directionEb>
     7b2:	65 e0       	ldi	r22, 0x05	; 5
     7b4:	80 e5       	ldi	r24, 0x50	; 80
     7b6:	91 e0       	ldi	r25, 0x01	; 1
     7b8:	0e 94 aa 02 	call	0x554	; 0x554 <_ZN5Motor10speed_downEh>
     7bc:	65 e0       	ldi	r22, 0x05	; 5
     7be:	89 e4       	ldi	r24, 0x49	; 73
     7c0:	91 e0       	ldi	r25, 0x01	; 1
     7c2:	0c 94 96 02 	jmp	0x52c	; 0x52c <_ZN5Motor8speed_upEh>
     7c6:	64 e1       	ldi	r22, 0x14	; 20
     7c8:	84 e1       	ldi	r24, 0x14	; 20
     7ca:	0c 94 e3 02 	jmp	0x5c6	; 0x5c6 <_Z17motors_speed_downhh>

000007ce <_Z18motors_go_backwardv>:
     7ce:	80 e5       	ldi	r24, 0x50	; 80
     7d0:	91 e0       	ldi	r25, 0x01	; 1
     7d2:	0e 94 44 02 	call	0x488	; 0x488 <_ZN5Motor13get_directionEv>
     7d6:	88 23       	and	r24, r24
     7d8:	29 f0       	breq	.+10     	; 0x7e4 <_Z18motors_go_backwardv+0x16>
     7da:	0e 94 0a 03 	call	0x614	; 0x614 <_Z16motors_get_speedv>
     7de:	88 23       	and	r24, r24
     7e0:	39 f0       	breq	.+14     	; 0x7f0 <_Z18motors_go_backwardv+0x22>
     7e2:	14 c0       	rjmp	.+40     	; 0x80c <_Z18motors_go_backwardv+0x3e>
     7e4:	89 e4       	ldi	r24, 0x49	; 73
     7e6:	91 e0       	ldi	r25, 0x01	; 1
     7e8:	0e 94 44 02 	call	0x488	; 0x488 <_ZN5Motor13get_directionEv>
     7ec:	81 11       	cpse	r24, r1
     7ee:	f5 cf       	rjmp	.-22     	; 0x7da <_Z18motors_go_backwardv+0xc>
     7f0:	60 e0       	ldi	r22, 0x00	; 0
     7f2:	80 e5       	ldi	r24, 0x50	; 80
     7f4:	91 e0       	ldi	r25, 0x01	; 1
     7f6:	0e 94 3a 02 	call	0x474	; 0x474 <_ZN5Motor13set_directionEb>
     7fa:	60 e0       	ldi	r22, 0x00	; 0
     7fc:	89 e4       	ldi	r24, 0x49	; 73
     7fe:	91 e0       	ldi	r25, 0x01	; 1
     800:	0e 94 3a 02 	call	0x474	; 0x474 <_ZN5Motor13set_directionEb>
     804:	65 e0       	ldi	r22, 0x05	; 5
     806:	85 e0       	ldi	r24, 0x05	; 5
     808:	0c 94 bc 02 	jmp	0x578	; 0x578 <_Z15motors_speed_uphh>
     80c:	64 e1       	ldi	r22, 0x14	; 20
     80e:	84 e1       	ldi	r24, 0x14	; 20
     810:	0c 94 e3 02 	jmp	0x5c6	; 0x5c6 <_Z17motors_speed_downhh>

00000814 <_Z27motors_go_backward_and_leftv>:
     814:	80 e5       	ldi	r24, 0x50	; 80
     816:	91 e0       	ldi	r25, 0x01	; 1
     818:	0e 94 44 02 	call	0x488	; 0x488 <_ZN5Motor13get_directionEv>
     81c:	88 23       	and	r24, r24
     81e:	29 f0       	breq	.+10     	; 0x82a <_Z27motors_go_backward_and_leftv+0x16>
     820:	0e 94 0a 03 	call	0x614	; 0x614 <_Z16motors_get_speedv>
     824:	88 23       	and	r24, r24
     826:	39 f0       	breq	.+14     	; 0x836 <_Z27motors_go_backward_and_leftv+0x22>
     828:	1a c0       	rjmp	.+52     	; 0x85e <_Z27motors_go_backward_and_leftv+0x4a>
     82a:	89 e4       	ldi	r24, 0x49	; 73
     82c:	91 e0       	ldi	r25, 0x01	; 1
     82e:	0e 94 44 02 	call	0x488	; 0x488 <_ZN5Motor13get_directionEv>
     832:	81 11       	cpse	r24, r1
     834:	f5 cf       	rjmp	.-22     	; 0x820 <_Z27motors_go_backward_and_leftv+0xc>
     836:	60 e0       	ldi	r22, 0x00	; 0
     838:	80 e5       	ldi	r24, 0x50	; 80
     83a:	91 e0       	ldi	r25, 0x01	; 1
     83c:	0e 94 3a 02 	call	0x474	; 0x474 <_ZN5Motor13set_directionEb>
     840:	60 e0       	ldi	r22, 0x00	; 0
     842:	89 e4       	ldi	r24, 0x49	; 73
     844:	91 e0       	ldi	r25, 0x01	; 1
     846:	0e 94 3a 02 	call	0x474	; 0x474 <_ZN5Motor13set_directionEb>
     84a:	65 e0       	ldi	r22, 0x05	; 5
     84c:	80 e5       	ldi	r24, 0x50	; 80
     84e:	91 e0       	ldi	r25, 0x01	; 1
     850:	0e 94 aa 02 	call	0x554	; 0x554 <_ZN5Motor10speed_downEh>
     854:	65 e0       	ldi	r22, 0x05	; 5
     856:	89 e4       	ldi	r24, 0x49	; 73
     858:	91 e0       	ldi	r25, 0x01	; 1
     85a:	0c 94 96 02 	jmp	0x52c	; 0x52c <_ZN5Motor8speed_upEh>
     85e:	64 e1       	ldi	r22, 0x14	; 20
     860:	84 e1       	ldi	r24, 0x14	; 20
     862:	0c 94 e3 02 	jmp	0x5c6	; 0x5c6 <_Z17motors_speed_downhh>

00000866 <_Z28motors_go_backward_and_rightv>:
     866:	80 e5       	ldi	r24, 0x50	; 80
     868:	91 e0       	ldi	r25, 0x01	; 1
     86a:	0e 94 44 02 	call	0x488	; 0x488 <_ZN5Motor13get_directionEv>
     86e:	88 23       	and	r24, r24
     870:	29 f0       	breq	.+10     	; 0x87c <_Z28motors_go_backward_and_rightv+0x16>
     872:	0e 94 0a 03 	call	0x614	; 0x614 <_Z16motors_get_speedv>
     876:	88 23       	and	r24, r24
     878:	39 f0       	breq	.+14     	; 0x888 <_Z28motors_go_backward_and_rightv+0x22>
     87a:	1a c0       	rjmp	.+52     	; 0x8b0 <_Z28motors_go_backward_and_rightv+0x4a>
     87c:	89 e4       	ldi	r24, 0x49	; 73
     87e:	91 e0       	ldi	r25, 0x01	; 1
     880:	0e 94 44 02 	call	0x488	; 0x488 <_ZN5Motor13get_directionEv>
     884:	81 11       	cpse	r24, r1
     886:	f5 cf       	rjmp	.-22     	; 0x872 <_Z28motors_go_backward_and_rightv+0xc>
     888:	60 e0       	ldi	r22, 0x00	; 0
     88a:	80 e5       	ldi	r24, 0x50	; 80
     88c:	91 e0       	ldi	r25, 0x01	; 1
     88e:	0e 94 3a 02 	call	0x474	; 0x474 <_ZN5Motor13set_directionEb>
     892:	60 e0       	ldi	r22, 0x00	; 0
     894:	89 e4       	ldi	r24, 0x49	; 73
     896:	91 e0       	ldi	r25, 0x01	; 1
     898:	0e 94 3a 02 	call	0x474	; 0x474 <_ZN5Motor13set_directionEb>
     89c:	65 e0       	ldi	r22, 0x05	; 5
     89e:	80 e5       	ldi	r24, 0x50	; 80
     8a0:	91 e0       	ldi	r25, 0x01	; 1
     8a2:	0e 94 96 02 	call	0x52c	; 0x52c <_ZN5Motor8speed_upEh>
     8a6:	65 e0       	ldi	r22, 0x05	; 5
     8a8:	89 e4       	ldi	r24, 0x49	; 73
     8aa:	91 e0       	ldi	r25, 0x01	; 1
     8ac:	0c 94 aa 02 	jmp	0x554	; 0x554 <_ZN5Motor10speed_downEh>
     8b0:	64 e1       	ldi	r22, 0x14	; 20
     8b2:	84 e1       	ldi	r24, 0x14	; 20
     8b4:	0c 94 e3 02 	jmp	0x5c6	; 0x5c6 <_Z17motors_speed_downhh>

000008b8 <_Z14motors_go_leftv>:
     8b8:	80 e5       	ldi	r24, 0x50	; 80
     8ba:	91 e0       	ldi	r25, 0x01	; 1
     8bc:	0e 94 44 02 	call	0x488	; 0x488 <_ZN5Motor13get_directionEv>
     8c0:	81 11       	cpse	r24, r1
     8c2:	05 c0       	rjmp	.+10     	; 0x8ce <_Z14motors_go_leftv+0x16>
     8c4:	0e 94 0a 03 	call	0x614	; 0x614 <_Z16motors_get_speedv>
     8c8:	88 23       	and	r24, r24
     8ca:	39 f0       	breq	.+14     	; 0x8da <_Z14motors_go_leftv+0x22>
     8cc:	1a c0       	rjmp	.+52     	; 0x902 <__stack+0x3>
     8ce:	89 e4       	ldi	r24, 0x49	; 73
     8d0:	91 e0       	ldi	r25, 0x01	; 1
     8d2:	0e 94 44 02 	call	0x488	; 0x488 <_ZN5Motor13get_directionEv>
     8d6:	81 11       	cpse	r24, r1
     8d8:	f5 cf       	rjmp	.-22     	; 0x8c4 <_Z14motors_go_leftv+0xc>
     8da:	61 e0       	ldi	r22, 0x01	; 1
     8dc:	80 e5       	ldi	r24, 0x50	; 80
     8de:	91 e0       	ldi	r25, 0x01	; 1
     8e0:	0e 94 3a 02 	call	0x474	; 0x474 <_ZN5Motor13set_directionEb>
     8e4:	60 e0       	ldi	r22, 0x00	; 0
     8e6:	89 e4       	ldi	r24, 0x49	; 73
     8e8:	91 e0       	ldi	r25, 0x01	; 1
     8ea:	0e 94 3a 02 	call	0x474	; 0x474 <_ZN5Motor13set_directionEb>
     8ee:	65 e0       	ldi	r22, 0x05	; 5
     8f0:	80 e5       	ldi	r24, 0x50	; 80
     8f2:	91 e0       	ldi	r25, 0x01	; 1
     8f4:	0e 94 96 02 	call	0x52c	; 0x52c <_ZN5Motor8speed_upEh>
     8f8:	65 e0       	ldi	r22, 0x05	; 5
     8fa:	89 e4       	ldi	r24, 0x49	; 73
     8fc:	91 e0       	ldi	r25, 0x01	; 1
     8fe:	0c 94 96 02 	jmp	0x52c	; 0x52c <_ZN5Motor8speed_upEh>
     902:	64 e1       	ldi	r22, 0x14	; 20
     904:	84 e1       	ldi	r24, 0x14	; 20
     906:	0c 94 e3 02 	jmp	0x5c6	; 0x5c6 <_Z17motors_speed_downhh>

0000090a <_Z15motors_go_rightv>:
     90a:	80 e5       	ldi	r24, 0x50	; 80
     90c:	91 e0       	ldi	r25, 0x01	; 1
     90e:	0e 94 44 02 	call	0x488	; 0x488 <_ZN5Motor13get_directionEv>
     912:	88 23       	and	r24, r24
     914:	29 f0       	breq	.+10     	; 0x920 <_Z15motors_go_rightv+0x16>
     916:	0e 94 0a 03 	call	0x614	; 0x614 <_Z16motors_get_speedv>
     91a:	88 23       	and	r24, r24
     91c:	39 f0       	breq	.+14     	; 0x92c <_Z15motors_go_rightv+0x22>
     91e:	1a c0       	rjmp	.+52     	; 0x954 <_Z15motors_go_rightv+0x4a>
     920:	89 e4       	ldi	r24, 0x49	; 73
     922:	91 e0       	ldi	r25, 0x01	; 1
     924:	0e 94 44 02 	call	0x488	; 0x488 <_ZN5Motor13get_directionEv>
     928:	88 23       	and	r24, r24
     92a:	a9 f3       	breq	.-22     	; 0x916 <_Z15motors_go_rightv+0xc>
     92c:	60 e0       	ldi	r22, 0x00	; 0
     92e:	80 e5       	ldi	r24, 0x50	; 80
     930:	91 e0       	ldi	r25, 0x01	; 1
     932:	0e 94 3a 02 	call	0x474	; 0x474 <_ZN5Motor13set_directionEb>
     936:	61 e0       	ldi	r22, 0x01	; 1
     938:	89 e4       	ldi	r24, 0x49	; 73
     93a:	91 e0       	ldi	r25, 0x01	; 1
     93c:	0e 94 3a 02 	call	0x474	; 0x474 <_ZN5Motor13set_directionEb>
     940:	65 e0       	ldi	r22, 0x05	; 5
     942:	80 e5       	ldi	r24, 0x50	; 80
     944:	91 e0       	ldi	r25, 0x01	; 1
     946:	0e 94 96 02 	call	0x52c	; 0x52c <_ZN5Motor8speed_upEh>
     94a:	65 e0       	ldi	r22, 0x05	; 5
     94c:	89 e4       	ldi	r24, 0x49	; 73
     94e:	91 e0       	ldi	r25, 0x01	; 1
     950:	0c 94 96 02 	jmp	0x52c	; 0x52c <_ZN5Motor8speed_upEh>
     954:	64 e1       	ldi	r22, 0x14	; 20
     956:	84 e1       	ldi	r24, 0x14	; 20
     958:	0c 94 e3 02 	jmp	0x5c6	; 0x5c6 <_Z17motors_speed_downhh>

0000095c <_Z20motors_string_speedsv>:

//========================================================
String motors_string_speeds(void){
     95c:	0f 93       	push	r16
     95e:	1f 93       	push	r17
     960:	cf 93       	push	r28
     962:	df 93       	push	r29
     964:	cd b7       	in	r28, 0x3d	; 61
     966:	de b7       	in	r29, 0x3e	; 62
     968:	62 97       	sbiw	r28, 0x12	; 18
     96a:	0f b6       	in	r0, 0x3f	; 63
     96c:	f8 94       	cli
     96e:	de bf       	out	0x3e, r29	; 62
     970:	0f be       	out	0x3f, r0	; 63
     972:	cd bf       	out	0x3d, r28	; 61
     974:	8c 01       	movw	r16, r24
	String Str = F(" Speeds: ");
     976:	6e e9       	ldi	r22, 0x9E	; 158
     978:	70 e0       	ldi	r23, 0x00	; 0
     97a:	0e 94 24 11 	call	0x2248	; 0x2248 <_ZN6StringC1EPK19__FlashStringHelper>
	Str += String(motor_right.get_speed()) + F(" ") + String(motor_left.get_speed());
     97e:	89 e4       	ldi	r24, 0x49	; 73
     980:	91 e0       	ldi	r25, 0x01	; 1
     982:	0e 94 34 02 	call	0x468	; 0x468 <_ZN5Motor9get_speedEv>
     986:	4a e0       	ldi	r20, 0x0A	; 10
     988:	68 2f       	mov	r22, r24
     98a:	ce 01       	movw	r24, r28
     98c:	01 96       	adiw	r24, 0x01	; 1
     98e:	0e 94 7d 10 	call	0x20fa	; 0x20fa <_ZN6StringC1Ehh>
     992:	80 e5       	ldi	r24, 0x50	; 80
     994:	91 e0       	ldi	r25, 0x01	; 1
     996:	0e 94 34 02 	call	0x468	; 0x468 <_ZN5Motor9get_speedEv>
     99a:	4a e0       	ldi	r20, 0x0A	; 10
     99c:	68 2f       	mov	r22, r24
     99e:	ce 01       	movw	r24, r28
     9a0:	0d 96       	adiw	r24, 0x0d	; 13
     9a2:	0e 94 7d 10 	call	0x20fa	; 0x20fa <_ZN6StringC1Ehh>
{
public:
	StringSumHelper(const String &s) : String(s) {}
     9a6:	be 01       	movw	r22, r28
     9a8:	63 5f       	subi	r22, 0xF3	; 243
     9aa:	7f 4f       	sbci	r23, 0xFF	; 255
     9ac:	ce 01       	movw	r24, r28
     9ae:	07 96       	adiw	r24, 0x07	; 7
     9b0:	0e 94 5d 10 	call	0x20ba	; 0x20ba <_ZN6StringC1ERKS_>
     9b4:	6c e9       	ldi	r22, 0x9C	; 156
     9b6:	70 e0       	ldi	r23, 0x00	; 0
     9b8:	ce 01       	movw	r24, r28
     9ba:	07 96       	adiw	r24, 0x07	; 7
     9bc:	0e 94 a5 11 	call	0x234a	; 0x234a <_ZplRK15StringSumHelperPK19__FlashStringHelper>
     9c0:	be 01       	movw	r22, r28
     9c2:	6f 5f       	subi	r22, 0xFF	; 255
     9c4:	7f 4f       	sbci	r23, 0xFF	; 255
     9c6:	0e 94 92 11 	call	0x2324	; 0x2324 <_ZplRK15StringSumHelperRK6String>
	unsigned char concat(double num);
	unsigned char concat(const __FlashStringHelper * str);

	// if there's not enough memory for the concatenated value, the string
	// will be left unchanged (but this isn't signalled in any way)
	String & operator += (const String &rhs)	{concat(rhs); return (*this);}
     9ca:	bc 01       	movw	r22, r24
     9cc:	c8 01       	movw	r24, r16
     9ce:	0e 94 5b 11 	call	0x22b6	; 0x22b6 <_ZN6String6concatERKS_>
       #if __cplusplus >= 201103L || defined(__GXX_EXPERIMENTAL_CXX0X__)
	void move(String &rhs);
	#endif
};

class StringSumHelper : public String
     9d2:	ce 01       	movw	r24, r28
     9d4:	07 96       	adiw	r24, 0x07	; 7
     9d6:	0e 94 b7 0f 	call	0x1f6e	; 0x1f6e <_ZN6StringD1Ev>
     9da:	ce 01       	movw	r24, r28
     9dc:	0d 96       	adiw	r24, 0x0d	; 13
     9de:	0e 94 b7 0f 	call	0x1f6e	; 0x1f6e <_ZN6StringD1Ev>
     9e2:	ce 01       	movw	r24, r28
     9e4:	01 96       	adiw	r24, 0x01	; 1
     9e6:	0e 94 b7 0f 	call	0x1f6e	; 0x1f6e <_ZN6StringD1Ev>
	return Str;
}
     9ea:	c8 01       	movw	r24, r16
     9ec:	62 96       	adiw	r28, 0x12	; 18
     9ee:	0f b6       	in	r0, 0x3f	; 63
     9f0:	f8 94       	cli
     9f2:	de bf       	out	0x3e, r29	; 62
     9f4:	0f be       	out	0x3f, r0	; 63
     9f6:	cd bf       	out	0x3d, r28	; 61
     9f8:	df 91       	pop	r29
     9fa:	cf 91       	pop	r28
     9fc:	1f 91       	pop	r17
     9fe:	0f 91       	pop	r16
     a00:	08 95       	ret

00000a02 <_Z24motors_string_realspeedsv>:
	
//========================================================
String motors_string_realspeeds(void){
     a02:	0f 93       	push	r16
     a04:	1f 93       	push	r17
     a06:	cf 93       	push	r28
     a08:	df 93       	push	r29
     a0a:	cd b7       	in	r28, 0x3d	; 61
     a0c:	de b7       	in	r29, 0x3e	; 62
     a0e:	62 97       	sbiw	r28, 0x12	; 18
     a10:	0f b6       	in	r0, 0x3f	; 63
     a12:	f8 94       	cli
     a14:	de bf       	out	0x3e, r29	; 62
     a16:	0f be       	out	0x3f, r0	; 63
     a18:	cd bf       	out	0x3d, r28	; 61
     a1a:	8c 01       	movw	r16, r24
	String Str = F(" RealSpeeds: ");
     a1c:	6e e8       	ldi	r22, 0x8E	; 142
     a1e:	70 e0       	ldi	r23, 0x00	; 0
     a20:	0e 94 24 11 	call	0x2248	; 0x2248 <_ZN6StringC1EPK19__FlashStringHelper>
	Str += String(motor_right.get_realspeed()) + F(" ") + String(motor_left.get_realspeed());
     a24:	89 e4       	ldi	r24, 0x49	; 73
     a26:	91 e0       	ldi	r25, 0x01	; 1
     a28:	0e 94 4a 02 	call	0x494	; 0x494 <_ZN5Motor13get_realspeedEv>
     a2c:	4a e0       	ldi	r20, 0x0A	; 10
     a2e:	bc 01       	movw	r22, r24
     a30:	ce 01       	movw	r24, r28
     a32:	01 96       	adiw	r24, 0x01	; 1
     a34:	0e 94 aa 10 	call	0x2154	; 0x2154 <_ZN6StringC1Eih>
     a38:	80 e5       	ldi	r24, 0x50	; 80
     a3a:	91 e0       	ldi	r25, 0x01	; 1
     a3c:	0e 94 4a 02 	call	0x494	; 0x494 <_ZN5Motor13get_realspeedEv>
     a40:	4a e0       	ldi	r20, 0x0A	; 10
     a42:	bc 01       	movw	r22, r24
     a44:	ce 01       	movw	r24, r28
     a46:	0d 96       	adiw	r24, 0x0d	; 13
     a48:	0e 94 aa 10 	call	0x2154	; 0x2154 <_ZN6StringC1Eih>
{
public:
	StringSumHelper(const String &s) : String(s) {}
     a4c:	be 01       	movw	r22, r28
     a4e:	63 5f       	subi	r22, 0xF3	; 243
     a50:	7f 4f       	sbci	r23, 0xFF	; 255
     a52:	ce 01       	movw	r24, r28
     a54:	07 96       	adiw	r24, 0x07	; 7
     a56:	0e 94 5d 10 	call	0x20ba	; 0x20ba <_ZN6StringC1ERKS_>
     a5a:	6c e8       	ldi	r22, 0x8C	; 140
     a5c:	70 e0       	ldi	r23, 0x00	; 0
     a5e:	ce 01       	movw	r24, r28
     a60:	07 96       	adiw	r24, 0x07	; 7
     a62:	0e 94 a5 11 	call	0x234a	; 0x234a <_ZplRK15StringSumHelperPK19__FlashStringHelper>
     a66:	be 01       	movw	r22, r28
     a68:	6f 5f       	subi	r22, 0xFF	; 255
     a6a:	7f 4f       	sbci	r23, 0xFF	; 255
     a6c:	0e 94 92 11 	call	0x2324	; 0x2324 <_ZplRK15StringSumHelperRK6String>
	unsigned char concat(double num);
	unsigned char concat(const __FlashStringHelper * str);

	// if there's not enough memory for the concatenated value, the string
	// will be left unchanged (but this isn't signalled in any way)
	String & operator += (const String &rhs)	{concat(rhs); return (*this);}
     a70:	bc 01       	movw	r22, r24
     a72:	c8 01       	movw	r24, r16
     a74:	0e 94 5b 11 	call	0x22b6	; 0x22b6 <_ZN6String6concatERKS_>
       #if __cplusplus >= 201103L || defined(__GXX_EXPERIMENTAL_CXX0X__)
	void move(String &rhs);
	#endif
};

class StringSumHelper : public String
     a78:	ce 01       	movw	r24, r28
     a7a:	07 96       	adiw	r24, 0x07	; 7
     a7c:	0e 94 b7 0f 	call	0x1f6e	; 0x1f6e <_ZN6StringD1Ev>
     a80:	ce 01       	movw	r24, r28
     a82:	0d 96       	adiw	r24, 0x0d	; 13
     a84:	0e 94 b7 0f 	call	0x1f6e	; 0x1f6e <_ZN6StringD1Ev>
     a88:	ce 01       	movw	r24, r28
     a8a:	01 96       	adiw	r24, 0x01	; 1
     a8c:	0e 94 b7 0f 	call	0x1f6e	; 0x1f6e <_ZN6StringD1Ev>
	return Str;
}
     a90:	c8 01       	movw	r24, r16
     a92:	62 96       	adiw	r28, 0x12	; 18
     a94:	0f b6       	in	r0, 0x3f	; 63
     a96:	f8 94       	cli
     a98:	de bf       	out	0x3e, r29	; 62
     a9a:	0f be       	out	0x3f, r0	; 63
     a9c:	cd bf       	out	0x3d, r28	; 61
     a9e:	df 91       	pop	r29
     aa0:	cf 91       	pop	r28
     aa2:	1f 91       	pop	r17
     aa4:	0f 91       	pop	r16
     aa6:	08 95       	ret

00000aa8 <_Z23motors_string_maxspeedsv>:
	
//========================================================
String motors_string_maxspeeds(void){
     aa8:	0f 93       	push	r16
     aaa:	1f 93       	push	r17
     aac:	cf 93       	push	r28
     aae:	df 93       	push	r29
     ab0:	cd b7       	in	r28, 0x3d	; 61
     ab2:	de b7       	in	r29, 0x3e	; 62
     ab4:	62 97       	sbiw	r28, 0x12	; 18
     ab6:	0f b6       	in	r0, 0x3f	; 63
     ab8:	f8 94       	cli
     aba:	de bf       	out	0x3e, r29	; 62
     abc:	0f be       	out	0x3f, r0	; 63
     abe:	cd bf       	out	0x3d, r28	; 61
     ac0:	8c 01       	movw	r16, r24
	String Str = F(" Max Speeds: ");
     ac2:	6e e7       	ldi	r22, 0x7E	; 126
     ac4:	70 e0       	ldi	r23, 0x00	; 0
     ac6:	0e 94 24 11 	call	0x2248	; 0x2248 <_ZN6StringC1EPK19__FlashStringHelper>
	Str += String(motor_right.get_max_speed()) + F(" ") + String(motor_left.get_max_speed());
     aca:	89 e4       	ldi	r24, 0x49	; 73
     acc:	91 e0       	ldi	r25, 0x01	; 1
     ace:	0e 94 37 02 	call	0x46e	; 0x46e <_ZN5Motor13get_max_speedEv>
     ad2:	4a e0       	ldi	r20, 0x0A	; 10
     ad4:	68 2f       	mov	r22, r24
     ad6:	ce 01       	movw	r24, r28
     ad8:	01 96       	adiw	r24, 0x01	; 1
     ada:	0e 94 7d 10 	call	0x20fa	; 0x20fa <_ZN6StringC1Ehh>
     ade:	80 e5       	ldi	r24, 0x50	; 80
     ae0:	91 e0       	ldi	r25, 0x01	; 1
     ae2:	0e 94 37 02 	call	0x46e	; 0x46e <_ZN5Motor13get_max_speedEv>
     ae6:	4a e0       	ldi	r20, 0x0A	; 10
     ae8:	68 2f       	mov	r22, r24
     aea:	ce 01       	movw	r24, r28
     aec:	0d 96       	adiw	r24, 0x0d	; 13
     aee:	0e 94 7d 10 	call	0x20fa	; 0x20fa <_ZN6StringC1Ehh>
{
public:
	StringSumHelper(const String &s) : String(s) {}
     af2:	be 01       	movw	r22, r28
     af4:	63 5f       	subi	r22, 0xF3	; 243
     af6:	7f 4f       	sbci	r23, 0xFF	; 255
     af8:	ce 01       	movw	r24, r28
     afa:	07 96       	adiw	r24, 0x07	; 7
     afc:	0e 94 5d 10 	call	0x20ba	; 0x20ba <_ZN6StringC1ERKS_>
     b00:	6c e7       	ldi	r22, 0x7C	; 124
     b02:	70 e0       	ldi	r23, 0x00	; 0
     b04:	ce 01       	movw	r24, r28
     b06:	07 96       	adiw	r24, 0x07	; 7
     b08:	0e 94 a5 11 	call	0x234a	; 0x234a <_ZplRK15StringSumHelperPK19__FlashStringHelper>
     b0c:	be 01       	movw	r22, r28
     b0e:	6f 5f       	subi	r22, 0xFF	; 255
     b10:	7f 4f       	sbci	r23, 0xFF	; 255
     b12:	0e 94 92 11 	call	0x2324	; 0x2324 <_ZplRK15StringSumHelperRK6String>
	unsigned char concat(double num);
	unsigned char concat(const __FlashStringHelper * str);

	// if there's not enough memory for the concatenated value, the string
	// will be left unchanged (but this isn't signalled in any way)
	String & operator += (const String &rhs)	{concat(rhs); return (*this);}
     b16:	bc 01       	movw	r22, r24
     b18:	c8 01       	movw	r24, r16
     b1a:	0e 94 5b 11 	call	0x22b6	; 0x22b6 <_ZN6String6concatERKS_>
       #if __cplusplus >= 201103L || defined(__GXX_EXPERIMENTAL_CXX0X__)
	void move(String &rhs);
	#endif
};

class StringSumHelper : public String
     b1e:	ce 01       	movw	r24, r28
     b20:	07 96       	adiw	r24, 0x07	; 7
     b22:	0e 94 b7 0f 	call	0x1f6e	; 0x1f6e <_ZN6StringD1Ev>
     b26:	ce 01       	movw	r24, r28
     b28:	0d 96       	adiw	r24, 0x0d	; 13
     b2a:	0e 94 b7 0f 	call	0x1f6e	; 0x1f6e <_ZN6StringD1Ev>
     b2e:	ce 01       	movw	r24, r28
     b30:	01 96       	adiw	r24, 0x01	; 1
     b32:	0e 94 b7 0f 	call	0x1f6e	; 0x1f6e <_ZN6StringD1Ev>
	return Str;
     b36:	c8 01       	movw	r24, r16
     b38:	62 96       	adiw	r28, 0x12	; 18
     b3a:	0f b6       	in	r0, 0x3f	; 63
     b3c:	f8 94       	cli
     b3e:	de bf       	out	0x3e, r29	; 62
     b40:	0f be       	out	0x3f, r0	; 63
     b42:	cd bf       	out	0x3d, r28	; 61
     b44:	df 91       	pop	r29
     b46:	cf 91       	pop	r28
     b48:	1f 91       	pop	r17
     b4a:	0f 91       	pop	r16
     b4c:	08 95       	ret

00000b4e <_GLOBAL__sub_I_motor_right>:
 */

#include "Arduino.h"
#include "Motors.h"

Motor motor_right(MOTOR_R_DIR_PIN, MOTOR_R_SPD_PIN);
     b4e:	46 e0       	ldi	r20, 0x06	; 6
     b50:	67 e0       	ldi	r22, 0x07	; 7
     b52:	80 e5       	ldi	r24, 0x50	; 80
     b54:	91 e0       	ldi	r25, 0x01	; 1
     b56:	0e 94 63 02 	call	0x4c6	; 0x4c6 <_ZN5MotorC1Ehh>
Motor motor_left(MOTOR_L_DIR_PIN, MOTOR_L_SPD_PIN);
     b5a:	45 e0       	ldi	r20, 0x05	; 5
     b5c:	64 e0       	ldi	r22, 0x04	; 4
     b5e:	89 e4       	ldi	r24, 0x49	; 73
     b60:	91 e0       	ldi	r25, 0x01	; 1
     b62:	0c 94 63 02 	jmp	0x4c6	; 0x4c6 <_ZN5MotorC1Ehh>

00000b66 <_ZN7NewPing12ping_triggerEv>:
	TIMSK4 = (1<<TOIE4);   // Enable Timer4 interrupt.
#elif defined (__arm__) && defined (TEENSYDUINO)  // Timer for Teensy 3.x
	itimer.begin(NewPing::timer_ms_cntdwn, 1000); // Set timer to 1ms (1000 uS).
#else
	OCR2A = 249;           // Every count is 4uS, so 1ms = 250 counts - 1.
	TIMSK2 |= (1<<OCIE2A); // Enable Timer2 interrupt.
     b66:	0f 93       	push	r16
     b68:	1f 93       	push	r17
     b6a:	cf 93       	push	r28
     b6c:	df 93       	push	r29
     b6e:	ec 01       	movw	r28, r24
     b70:	ea 85       	ldd	r30, Y+10	; 0x0a
     b72:	fb 85       	ldd	r31, Y+11	; 0x0b
     b74:	90 81       	ld	r25, Z
     b76:	8c 81       	ldd	r24, Y+4	; 0x04
     b78:	89 2b       	or	r24, r25
     b7a:	80 83       	st	Z, r24
     b7c:	ee 81       	ldd	r30, Y+6	; 0x06
     b7e:	ff 81       	ldd	r31, Y+7	; 0x07
     b80:	90 81       	ld	r25, Z
     b82:	8c 81       	ldd	r24, Y+4	; 0x04
     b84:	80 95       	com	r24
     b86:	89 23       	and	r24, r25
     b88:	80 83       	st	Z, r24
     b8a:	84 e0       	ldi	r24, 0x04	; 4
     b8c:	90 e0       	ldi	r25, 0x00	; 0
     b8e:	0e 94 3c 0e 	call	0x1c78	; 0x1c78 <delayMicroseconds>
     b92:	ee 81       	ldd	r30, Y+6	; 0x06
     b94:	ff 81       	ldd	r31, Y+7	; 0x07
     b96:	90 81       	ld	r25, Z
     b98:	8c 81       	ldd	r24, Y+4	; 0x04
     b9a:	89 2b       	or	r24, r25
     b9c:	80 83       	st	Z, r24
     b9e:	8a e0       	ldi	r24, 0x0A	; 10
     ba0:	90 e0       	ldi	r25, 0x00	; 0
     ba2:	0e 94 3c 0e 	call	0x1c78	; 0x1c78 <delayMicroseconds>
     ba6:	ee 81       	ldd	r30, Y+6	; 0x06
     ba8:	ff 81       	ldd	r31, Y+7	; 0x07
     baa:	90 81       	ld	r25, Z
     bac:	8c 81       	ldd	r24, Y+4	; 0x04
     bae:	80 95       	com	r24
     bb0:	89 23       	and	r24, r25
     bb2:	80 83       	st	Z, r24
     bb4:	ea 85       	ldd	r30, Y+10	; 0x0a
     bb6:	fb 85       	ldd	r31, Y+11	; 0x0b
     bb8:	90 81       	ld	r25, Z
     bba:	8c 81       	ldd	r24, Y+4	; 0x04
     bbc:	80 95       	com	r24
     bbe:	89 23       	and	r24, r25
     bc0:	80 83       	st	Z, r24
     bc2:	e8 85       	ldd	r30, Y+8	; 0x08
     bc4:	f9 85       	ldd	r31, Y+9	; 0x09
     bc6:	90 81       	ld	r25, Z
     bc8:	8d 81       	ldd	r24, Y+5	; 0x05
     bca:	89 23       	and	r24, r25
     bcc:	11 f0       	breq	.+4      	; 0xbd2 <_ZN7NewPing12ping_triggerEv+0x6c>
     bce:	80 e0       	ldi	r24, 0x00	; 0
     bd0:	36 c0       	rjmp	.+108    	; 0xc3e <_ZN7NewPing12ping_triggerEv+0xd8>
     bd2:	0e 94 db 0d 	call	0x1bb6	; 0x1bb6 <micros>
     bd6:	2c 85       	ldd	r18, Y+12	; 0x0c
     bd8:	3d 85       	ldd	r19, Y+13	; 0x0d
     bda:	89 01       	movw	r16, r18
     bdc:	20 e0       	ldi	r18, 0x00	; 0
     bde:	30 e0       	ldi	r19, 0x00	; 0
     be0:	08 55       	subi	r16, 0x58	; 88
     be2:	19 4e       	sbci	r17, 0xE9	; 233
     be4:	2f 4f       	sbci	r18, 0xFF	; 255
     be6:	3f 4f       	sbci	r19, 0xFF	; 255
     be8:	dc 01       	movw	r26, r24
     bea:	cb 01       	movw	r24, r22
     bec:	80 0f       	add	r24, r16
     bee:	91 1f       	adc	r25, r17
     bf0:	a2 1f       	adc	r26, r18
     bf2:	b3 1f       	adc	r27, r19
     bf4:	8e 87       	std	Y+14, r24	; 0x0e
     bf6:	9f 87       	std	Y+15, r25	; 0x0f
     bf8:	a8 8b       	std	Y+16, r26	; 0x10
     bfa:	b9 8b       	std	Y+17, r27	; 0x11
     bfc:	e8 85       	ldd	r30, Y+8	; 0x08
     bfe:	f9 85       	ldd	r31, Y+9	; 0x09
     c00:	90 81       	ld	r25, Z
     c02:	8d 81       	ldd	r24, Y+5	; 0x05
     c04:	89 23       	and	r24, r25
     c06:	61 f4       	brne	.+24     	; 0xc20 <_ZN7NewPing12ping_triggerEv+0xba>
     c08:	0e 94 db 0d 	call	0x1bb6	; 0x1bb6 <micros>
     c0c:	0e 85       	ldd	r16, Y+14	; 0x0e
     c0e:	1f 85       	ldd	r17, Y+15	; 0x0f
     c10:	28 89       	ldd	r18, Y+16	; 0x10
     c12:	39 89       	ldd	r19, Y+17	; 0x11
     c14:	06 17       	cp	r16, r22
     c16:	17 07       	cpc	r17, r23
     c18:	28 07       	cpc	r18, r24
     c1a:	39 07       	cpc	r19, r25
     c1c:	78 f7       	brcc	.-34     	; 0xbfc <_ZN7NewPing12ping_triggerEv+0x96>
     c1e:	d7 cf       	rjmp	.-82     	; 0xbce <_ZN7NewPing12ping_triggerEv+0x68>
     c20:	0e 94 db 0d 	call	0x1bb6	; 0x1bb6 <micros>
     c24:	2c 85       	ldd	r18, Y+12	; 0x0c
     c26:	3d 85       	ldd	r19, Y+13	; 0x0d
     c28:	dc 01       	movw	r26, r24
     c2a:	cb 01       	movw	r24, r22
     c2c:	82 0f       	add	r24, r18
     c2e:	93 1f       	adc	r25, r19
     c30:	a1 1d       	adc	r26, r1
     c32:	b1 1d       	adc	r27, r1
     c34:	8e 87       	std	Y+14, r24	; 0x0e
     c36:	9f 87       	std	Y+15, r25	; 0x0f
     c38:	a8 8b       	std	Y+16, r26	; 0x10
     c3a:	b9 8b       	std	Y+17, r27	; 0x11
     c3c:	81 e0       	ldi	r24, 0x01	; 1
     c3e:	df 91       	pop	r29
     c40:	cf 91       	pop	r28
     c42:	1f 91       	pop	r17
     c44:	0f 91       	pop	r16
     c46:	08 95       	ret

00000c48 <_ZN7NewPing16set_max_distanceEj>:
     c48:	6f 5f       	subi	r22, 0xFF	; 255
     c4a:	7f 4f       	sbci	r23, 0xFF	; 255
     c4c:	49 e3       	ldi	r20, 0x39	; 57
     c4e:	46 9f       	mul	r20, r22
     c50:	90 01       	movw	r18, r0
     c52:	47 9f       	mul	r20, r23
     c54:	30 0d       	add	r19, r0
     c56:	11 24       	eor	r1, r1
     c58:	2e 38       	cpi	r18, 0x8E	; 142
     c5a:	4f e6       	ldi	r20, 0x6F	; 111
     c5c:	34 07       	cpc	r19, r20
     c5e:	10 f0       	brcs	.+4      	; 0xc64 <_ZN7NewPing16set_max_distanceEj+0x1c>
     c60:	2d e8       	ldi	r18, 0x8D	; 141
     c62:	3f e6       	ldi	r19, 0x6F	; 111
     c64:	fc 01       	movw	r30, r24
     c66:	35 87       	std	Z+13, r19	; 0x0d
     c68:	24 87       	std	Z+12, r18	; 0x0c
     c6a:	08 95       	ret

00000c6c <_ZN7NewPingC1Ehhj>:
     c6c:	dc 01       	movw	r26, r24
     c6e:	70 e0       	ldi	r23, 0x00	; 0
     c70:	fb 01       	movw	r30, r22
     c72:	ec 5e       	subi	r30, 0xEC	; 236
     c74:	fe 4f       	sbci	r31, 0xFE	; 254
     c76:	e4 91       	lpm	r30, Z
     c78:	14 96       	adiw	r26, 0x04	; 4
     c7a:	ec 93       	st	X, r30
     c7c:	14 97       	sbiw	r26, 0x04	; 4
     c7e:	50 e0       	ldi	r21, 0x00	; 0
     c80:	fa 01       	movw	r30, r20
     c82:	ec 5e       	subi	r30, 0xEC	; 236
     c84:	fe 4f       	sbci	r31, 0xFE	; 254
     c86:	e4 91       	lpm	r30, Z
     c88:	15 96       	adiw	r26, 0x05	; 5
     c8a:	ec 93       	st	X, r30
     c8c:	15 97       	sbiw	r26, 0x05	; 5
     c8e:	68 5d       	subi	r22, 0xD8	; 216
     c90:	7e 4f       	sbci	r23, 0xFE	; 254
     c92:	fb 01       	movw	r30, r22
     c94:	84 91       	lpm	r24, Z
     c96:	e8 2f       	mov	r30, r24
     c98:	f0 e0       	ldi	r31, 0x00	; 0
     c9a:	ee 0f       	add	r30, r30
     c9c:	ff 1f       	adc	r31, r31
     c9e:	ea 5b       	subi	r30, 0xBA	; 186
     ca0:	fe 4f       	sbci	r31, 0xFE	; 254
     ca2:	85 91       	lpm	r24, Z+
     ca4:	94 91       	lpm	r25, Z
     ca6:	17 96       	adiw	r26, 0x07	; 7
     ca8:	9c 93       	st	X, r25
     caa:	8e 93       	st	-X, r24
     cac:	16 97       	sbiw	r26, 0x06	; 6
     cae:	fa 01       	movw	r30, r20
     cb0:	e8 5d       	subi	r30, 0xD8	; 216
     cb2:	fe 4f       	sbci	r31, 0xFE	; 254
     cb4:	44 91       	lpm	r20, Z
     cb6:	50 e0       	ldi	r21, 0x00	; 0
     cb8:	44 0f       	add	r20, r20
     cba:	55 1f       	adc	r21, r21
     cbc:	44 5c       	subi	r20, 0xC4	; 196
     cbe:	5e 4f       	sbci	r21, 0xFE	; 254
     cc0:	fa 01       	movw	r30, r20
     cc2:	85 91       	lpm	r24, Z+
     cc4:	94 91       	lpm	r25, Z
     cc6:	19 96       	adiw	r26, 0x09	; 9
     cc8:	9c 93       	st	X, r25
     cca:	8e 93       	st	-X, r24
     ccc:	18 97       	sbiw	r26, 0x08	; 8
     cce:	fb 01       	movw	r30, r22
     cd0:	64 91       	lpm	r22, Z
     cd2:	e6 2f       	mov	r30, r22
     cd4:	f0 e0       	ldi	r31, 0x00	; 0
     cd6:	ee 0f       	add	r30, r30
     cd8:	ff 1f       	adc	r31, r31
     cda:	e0 5b       	subi	r30, 0xB0	; 176
     cdc:	fe 4f       	sbci	r31, 0xFE	; 254
     cde:	85 91       	lpm	r24, Z+
     ce0:	94 91       	lpm	r25, Z
     ce2:	1b 96       	adiw	r26, 0x0b	; 11
     ce4:	9c 93       	st	X, r25
     ce6:	8e 93       	st	-X, r24
     ce8:	1a 97       	sbiw	r26, 0x0a	; 10
     cea:	b9 01       	movw	r22, r18
     cec:	cd 01       	movw	r24, r26
     cee:	0c 94 24 06 	jmp	0xc48	; 0xc48 <_ZN7NewPing16set_max_distanceEj>

00000cf2 <_ZN7NewPing10timer_stopEv>:
     cf2:	e0 e7       	ldi	r30, 0x70	; 112
     cf4:	f0 e0       	ldi	r31, 0x00	; 0
     cf6:	80 81       	ld	r24, Z
     cf8:	8d 7f       	andi	r24, 0xFD	; 253
     cfa:	80 83       	st	Z, r24
     cfc:	08 95       	ret

00000cfe <_ZN7NewPing11check_timerEv>:
     cfe:	0f 93       	push	r16
     d00:	1f 93       	push	r17
     d02:	cf 93       	push	r28
     d04:	df 93       	push	r29
     d06:	ec 01       	movw	r28, r24
     d08:	0e 94 db 0d 	call	0x1bb6	; 0x1bb6 <micros>
     d0c:	0e 85       	ldd	r16, Y+14	; 0x0e
     d0e:	1f 85       	ldd	r17, Y+15	; 0x0f
     d10:	28 89       	ldd	r18, Y+16	; 0x10
     d12:	39 89       	ldd	r19, Y+17	; 0x11
     d14:	06 17       	cp	r16, r22
     d16:	17 07       	cpc	r17, r23
     d18:	28 07       	cpc	r18, r24
     d1a:	39 07       	cpc	r19, r25
     d1c:	08 f5       	brcc	.+66     	; 0xd60 <_ZN7NewPing11check_timerEv+0x62>
     d1e:	0e 94 79 06 	call	0xcf2	; 0xcf2 <_ZN7NewPing10timer_stopEv>
     d22:	0e 94 db 0d 	call	0x1bb6	; 0x1bb6 <micros>
     d26:	8b 01       	movw	r16, r22
     d28:	9c 01       	movw	r18, r24
     d2a:	8c 85       	ldd	r24, Y+12	; 0x0c
     d2c:	9d 85       	ldd	r25, Y+13	; 0x0d
     d2e:	ac 01       	movw	r20, r24
     d30:	60 e0       	ldi	r22, 0x00	; 0
     d32:	70 e0       	ldi	r23, 0x00	; 0
     d34:	8e 85       	ldd	r24, Y+14	; 0x0e
     d36:	9f 85       	ldd	r25, Y+15	; 0x0f
     d38:	a8 89       	ldd	r26, Y+16	; 0x10
     d3a:	b9 89       	ldd	r27, Y+17	; 0x11
     d3c:	48 1b       	sub	r20, r24
     d3e:	59 0b       	sbc	r21, r25
     d40:	6a 0b       	sbc	r22, r26
     d42:	7b 0b       	sbc	r23, r27
     d44:	4d 50       	subi	r20, 0x0D	; 13
     d46:	51 09       	sbc	r21, r1
     d48:	61 09       	sbc	r22, r1
     d4a:	71 09       	sbc	r23, r1
     d4c:	40 0f       	add	r20, r16
     d4e:	51 1f       	adc	r21, r17
     d50:	62 1f       	adc	r22, r18
     d52:	73 1f       	adc	r23, r19
     d54:	48 83       	st	Y, r20
     d56:	59 83       	std	Y+1, r21	; 0x01
     d58:	6a 83       	std	Y+2, r22	; 0x02
     d5a:	7b 83       	std	Y+3, r23	; 0x03
     d5c:	81 e0       	ldi	r24, 0x01	; 1
     d5e:	07 c0       	rjmp	.+14     	; 0xd6e <_ZN7NewPing11check_timerEv+0x70>
     d60:	e8 85       	ldd	r30, Y+8	; 0x08
     d62:	f9 85       	ldd	r31, Y+9	; 0x09
     d64:	90 81       	ld	r25, Z
     d66:	8d 81       	ldd	r24, Y+5	; 0x05
     d68:	89 23       	and	r24, r25
     d6a:	c9 f2       	breq	.-78     	; 0xd1e <_ZN7NewPing11check_timerEv+0x20>
     d6c:	80 e0       	ldi	r24, 0x00	; 0
     d6e:	df 91       	pop	r29
     d70:	cf 91       	pop	r28
     d72:	1f 91       	pop	r17
     d74:	0f 91       	pop	r16
     d76:	08 95       	ret

00000d78 <_ZN7NewPing11timer_setupEv>:
     d78:	0e 94 79 06 	call	0xcf2	; 0xcf2 <_ZN7NewPing10timer_stopEv>
     d7c:	e6 eb       	ldi	r30, 0xB6	; 182
     d7e:	f0 e0       	ldi	r31, 0x00	; 0
     d80:	80 81       	ld	r24, Z
     d82:	8f 7d       	andi	r24, 0xDF	; 223
     d84:	80 83       	st	Z, r24
     d86:	82 e0       	ldi	r24, 0x02	; 2
     d88:	80 93 b0 00 	sts	0x00B0, r24	; 0x8000b0 <__TEXT_REGION_LENGTH__+0x7e00b0>
     d8c:	84 e0       	ldi	r24, 0x04	; 4
     d8e:	80 93 b1 00 	sts	0x00B1, r24	; 0x8000b1 <__TEXT_REGION_LENGTH__+0x7e00b1>
     d92:	10 92 b2 00 	sts	0x00B2, r1	; 0x8000b2 <__TEXT_REGION_LENGTH__+0x7e00b2>
     d96:	08 95       	ret

00000d98 <_ZN7NewPing8timer_usEjPFvvE>:
     d98:	cf 93       	push	r28
     d9a:	df 93       	push	r29
     d9c:	ec 01       	movw	r28, r24
     d9e:	70 93 58 01 	sts	0x0158, r23	; 0x800158 <intFunc+0x1>
     da2:	60 93 57 01 	sts	0x0157, r22	; 0x800157 <intFunc>
     da6:	0e 94 bc 06 	call	0xd78	; 0xd78 <_ZN7NewPing11timer_setupEv>
     daa:	ce 01       	movw	r24, r28
     dac:	96 95       	lsr	r25
     dae:	87 95       	ror	r24
     db0:	96 95       	lsr	r25
     db2:	87 95       	ror	r24
     db4:	01 97       	sbiw	r24, 0x01	; 1
     db6:	8f 3f       	cpi	r24, 0xFF	; 255
     db8:	91 05       	cpc	r25, r1
     dba:	19 f0       	breq	.+6      	; 0xdc2 <_ZN7NewPing8timer_usEjPFvvE+0x2a>
     dbc:	10 f0       	brcs	.+4      	; 0xdc2 <_ZN7NewPing8timer_usEjPFvvE+0x2a>
     dbe:	8f ef       	ldi	r24, 0xFF	; 255
     dc0:	90 e0       	ldi	r25, 0x00	; 0
     dc2:	80 93 b3 00 	sts	0x00B3, r24	; 0x8000b3 <__TEXT_REGION_LENGTH__+0x7e00b3>
     dc6:	80 91 70 00 	lds	r24, 0x0070	; 0x800070 <__TEXT_REGION_LENGTH__+0x7e0070>
     dca:	82 60       	ori	r24, 0x02	; 2
     dcc:	80 93 70 00 	sts	0x0070, r24	; 0x800070 <__TEXT_REGION_LENGTH__+0x7e0070>
     dd0:	df 91       	pop	r29
     dd2:	cf 91       	pop	r28
     dd4:	08 95       	ret

00000dd6 <_ZN7NewPing10ping_timerEPFvvEj>:
     dd6:	0f 93       	push	r16
     dd8:	1f 93       	push	r17
     dda:	cf 93       	push	r28
     ddc:	df 93       	push	r29
     dde:	ec 01       	movw	r28, r24
     de0:	8b 01       	movw	r16, r22
     de2:	41 15       	cp	r20, r1
     de4:	51 05       	cpc	r21, r1
     de6:	19 f0       	breq	.+6      	; 0xdee <_ZN7NewPing10ping_timerEPFvvEj+0x18>
     de8:	ba 01       	movw	r22, r20
     dea:	0e 94 24 06 	call	0xc48	; 0xc48 <_ZN7NewPing16set_max_distanceEj>
     dee:	ce 01       	movw	r24, r28
     df0:	0e 94 b3 05 	call	0xb66	; 0xb66 <_ZN7NewPing12ping_triggerEv>
     df4:	88 23       	and	r24, r24
     df6:	49 f0       	breq	.+18     	; 0xe0a <_ZN7NewPing10ping_timerEPFvvEj+0x34>
     df8:	b8 01       	movw	r22, r16
     dfa:	88 e1       	ldi	r24, 0x18	; 24
     dfc:	90 e0       	ldi	r25, 0x00	; 0
     dfe:	df 91       	pop	r29
     e00:	cf 91       	pop	r28
     e02:	1f 91       	pop	r17
     e04:	0f 91       	pop	r16
     e06:	0c 94 cc 06 	jmp	0xd98	; 0xd98 <_ZN7NewPing8timer_usEjPFvvE>
     e0a:	df 91       	pop	r29
     e0c:	cf 91       	pop	r28
     e0e:	1f 91       	pop	r17
     e10:	0f 91       	pop	r16
     e12:	08 95       	ret

00000e14 <__vector_7>:
	intFunc(); // Call wrapped function.
}
#elif defined (__arm__)
// Do nothing...
#else
ISR(TIMER2_COMPA_vect) {
     e14:	1f 92       	push	r1
     e16:	0f 92       	push	r0
     e18:	0f b6       	in	r0, 0x3f	; 63
     e1a:	0f 92       	push	r0
     e1c:	11 24       	eor	r1, r1
     e1e:	2f 93       	push	r18
     e20:	3f 93       	push	r19
     e22:	4f 93       	push	r20
     e24:	5f 93       	push	r21
     e26:	6f 93       	push	r22
     e28:	7f 93       	push	r23
     e2a:	8f 93       	push	r24
     e2c:	9f 93       	push	r25
     e2e:	af 93       	push	r26
     e30:	bf 93       	push	r27
     e32:	ef 93       	push	r30
     e34:	ff 93       	push	r31
	intFunc(); // Call wrapped function.
     e36:	e0 91 57 01 	lds	r30, 0x0157	; 0x800157 <intFunc>
     e3a:	f0 91 58 01 	lds	r31, 0x0158	; 0x800158 <intFunc+0x1>
     e3e:	09 95       	icall
}
     e40:	ff 91       	pop	r31
     e42:	ef 91       	pop	r30
     e44:	bf 91       	pop	r27
     e46:	af 91       	pop	r26
     e48:	9f 91       	pop	r25
     e4a:	8f 91       	pop	r24
     e4c:	7f 91       	pop	r23
     e4e:	6f 91       	pop	r22
     e50:	5f 91       	pop	r21
     e52:	4f 91       	pop	r20
     e54:	3f 91       	pop	r19
     e56:	2f 91       	pop	r18
     e58:	0f 90       	pop	r0
     e5a:	0f be       	out	0x3f, r0	; 63
     e5c:	0f 90       	pop	r0
     e5e:	1f 90       	pop	r1
     e60:	18 95       	reti

00000e62 <_Z10SerialInitv>:
  public:
    inline HardwareSerial(
      volatile uint8_t *ubrrh, volatile uint8_t *ubrrl,
      volatile uint8_t *ucsra, volatile uint8_t *ucsrb,
      volatile uint8_t *ucsrc, volatile uint8_t *udr);
    void begin(unsigned long baud) { begin(baud, SERIAL_8N1); }
     e62:	26 e0       	ldi	r18, 0x06	; 6
     e64:	40 e0       	ldi	r20, 0x00	; 0
     e66:	52 ec       	ldi	r21, 0xC2	; 194
     e68:	61 e0       	ldi	r22, 0x01	; 1
     e6a:	70 e0       	ldi	r23, 0x00	; 0
     e6c:	82 e9       	ldi	r24, 0x92	; 146
     e6e:	91 e0       	ldi	r25, 0x01	; 1
     e70:	0e 94 e7 0b 	call	0x17ce	; 0x17ce <_ZN14HardwareSerial5beginEmh>

//==============================================================
void SerialInit(void){
	
	Serial.begin(115200);
	Serial.println(F("Start"));	
     e74:	68 ea       	ldi	r22, 0xA8	; 168
     e76:	70 e0       	ldi	r23, 0x00	; 0
     e78:	82 e9       	ldi	r24, 0x92	; 146
     e7a:	91 e0       	ldi	r25, 0x01	; 1
     e7c:	0c 94 61 0d 	jmp	0x1ac2	; 0x1ac2 <_ZN5Print7printlnEPK19__FlashStringHelper>

00000e80 <_Z9SendInfosv>:
		SendInfos();
	}
}

//=================================================================================
void SendInfos(void){
     e80:	cf 93       	push	r28
     e82:	df 93       	push	r29
     e84:	00 d0       	rcall	.+0      	; 0xe86 <_Z9SendInfosv+0x6>
     e86:	00 d0       	rcall	.+0      	; 0xe88 <_Z9SendInfosv+0x8>
     e88:	00 d0       	rcall	.+0      	; 0xe8a <_Z9SendInfosv+0xa>
     e8a:	cd b7       	in	r28, 0x3d	; 61
     e8c:	de b7       	in	r29, 0x3e	; 62
	//Serial.println(motors_get_direction_string());
	Serial.println(motors_string_speeds());
     e8e:	ce 01       	movw	r24, r28
     e90:	01 96       	adiw	r24, 0x01	; 1
     e92:	0e 94 ae 04 	call	0x95c	; 0x95c <_Z20motors_string_speedsv>
     e96:	be 01       	movw	r22, r28
     e98:	6f 5f       	subi	r22, 0xFF	; 255
     e9a:	7f 4f       	sbci	r23, 0xFF	; 255
     e9c:	82 e9       	ldi	r24, 0x92	; 146
     e9e:	91 e0       	ldi	r25, 0x01	; 1
     ea0:	0e 94 73 0d 	call	0x1ae6	; 0x1ae6 <_ZN5Print7printlnERK6String>
     ea4:	ce 01       	movw	r24, r28
     ea6:	01 96       	adiw	r24, 0x01	; 1
     ea8:	0e 94 b7 0f 	call	0x1f6e	; 0x1f6e <_ZN6StringD1Ev>
	Serial.println(motors_string_realspeeds());
     eac:	ce 01       	movw	r24, r28
     eae:	01 96       	adiw	r24, 0x01	; 1
     eb0:	0e 94 01 05 	call	0xa02	; 0xa02 <_Z24motors_string_realspeedsv>
     eb4:	be 01       	movw	r22, r28
     eb6:	6f 5f       	subi	r22, 0xFF	; 255
     eb8:	7f 4f       	sbci	r23, 0xFF	; 255
     eba:	82 e9       	ldi	r24, 0x92	; 146
     ebc:	91 e0       	ldi	r25, 0x01	; 1
     ebe:	0e 94 73 0d 	call	0x1ae6	; 0x1ae6 <_ZN5Print7printlnERK6String>
     ec2:	ce 01       	movw	r24, r28
     ec4:	01 96       	adiw	r24, 0x01	; 1
     ec6:	0e 94 b7 0f 	call	0x1f6e	; 0x1f6e <_ZN6StringD1Ev>
	Serial.println(motors_string_maxspeeds());
     eca:	ce 01       	movw	r24, r28
     ecc:	01 96       	adiw	r24, 0x01	; 1
     ece:	0e 94 54 05 	call	0xaa8	; 0xaa8 <_Z23motors_string_maxspeedsv>
     ed2:	be 01       	movw	r22, r28
     ed4:	6f 5f       	subi	r22, 0xFF	; 255
     ed6:	7f 4f       	sbci	r23, 0xFF	; 255
     ed8:	82 e9       	ldi	r24, 0x92	; 146
     eda:	91 e0       	ldi	r25, 0x01	; 1
     edc:	0e 94 73 0d 	call	0x1ae6	; 0x1ae6 <_ZN5Print7printlnERK6String>
     ee0:	ce 01       	movw	r24, r28
     ee2:	01 96       	adiw	r24, 0x01	; 1
     ee4:	0e 94 b7 0f 	call	0x1f6e	; 0x1f6e <_ZN6StringD1Ev>
     ee8:	26 96       	adiw	r28, 0x06	; 6
     eea:	0f b6       	in	r0, 0x3f	; 63
     eec:	f8 94       	cli
     eee:	de bf       	out	0x3e, r29	; 62
     ef0:	0f be       	out	0x3f, r0	; 63
     ef2:	cd bf       	out	0x3d, r28	; 61
     ef4:	df 91       	pop	r29
     ef6:	cf 91       	pop	r28
     ef8:	08 95       	ret

00000efa <_Z18Task_SerialHandlerv>:
	Serial.begin(115200);
	Serial.println(F("Start"));	
}

//==============================================================
void Task_SerialHandler(void){
     efa:	cf 93       	push	r28
	
	if(Serial.available() > 0){
     efc:	82 e9       	ldi	r24, 0x92	; 146
     efe:	91 e0       	ldi	r25, 0x01	; 1
     f00:	0e 94 21 0b 	call	0x1642	; 0x1642 <_ZN14HardwareSerial9availableEv>
     f04:	18 16       	cp	r1, r24
     f06:	19 06       	cpc	r1, r25
     f08:	0c f0       	brlt	.+2      	; 0xf0c <_Z18Task_SerialHandlerv+0x12>
     f0a:	77 c0       	rjmp	.+238    	; 0xffa <_Z18Task_SerialHandlerv+0x100>
		uint8_t Cmd = Serial.read();
     f0c:	82 e9       	ldi	r24, 0x92	; 146
     f0e:	91 e0       	ldi	r25, 0x01	; 1
     f10:	0e 94 3b 0b 	call	0x1676	; 0x1676 <_ZN14HardwareSerial4readEv>
     f14:	c8 2f       	mov	r28, r24

		// Detect arduino sketch upload sequence
		if (Cmd==' ' && lastCmd=='0'){
     f16:	80 32       	cpi	r24, 0x20	; 32
     f18:	39 f4       	brne	.+14     	; 0xf28 <_Z18Task_SerialHandlerv+0x2e>
     f1a:	80 91 59 01 	lds	r24, 0x0159	; 0x800159 <lastCmd>
     f1e:	80 33       	cpi	r24, 0x30	; 48
     f20:	d1 f4       	brne	.+52     	; 0xf56 <_Z18Task_SerialHandlerv+0x5c>
			//wdt_enable(WDTO_15MS); //while(1){delay(1);};
			digitalWrite(PIN_RESET, 0);
     f22:	60 e0       	ldi	r22, 0x00	; 0
     f24:	8e e0       	ldi	r24, 0x0E	; 14
     f26:	15 c0       	rjmp	.+42     	; 0xf52 <_Z18Task_SerialHandlerv+0x58>
		}

		// Disable Remote Control
		else if (Cmd=='X'){		// RC on
     f28:	88 35       	cpi	r24, 0x58	; 88
     f2a:	41 f4       	brne	.+16     	; 0xf3c <_Z18Task_SerialHandlerv+0x42>
			if (motors_get_speed()==0){
     f2c:	0e 94 0a 03 	call	0x614	; 0x614 <_Z16motors_get_speedv>
     f30:	81 11       	cpse	r24, r1
     f32:	11 c0       	rjmp	.+34     	; 0xf56 <_Z18Task_SerialHandlerv+0x5c>
				isRCEnabled = false;
     f34:	10 92 06 01 	sts	0x0106, r1	; 0x800106 <isRCEnabled>
				digitalWrite(LED_BUILTIN, HIGH);
     f38:	61 e0       	ldi	r22, 0x01	; 1
     f3a:	0a c0       	rjmp	.+20     	; 0xf50 <_Z18Task_SerialHandlerv+0x56>
			}
		}
		// Enable Remote Control
		else if (Cmd=='x'){		// RC off
     f3c:	88 37       	cpi	r24, 0x78	; 120
     f3e:	59 f4       	brne	.+22     	; 0xf56 <_Z18Task_SerialHandlerv+0x5c>
			if (motors_get_speed()==0){
     f40:	0e 94 0a 03 	call	0x614	; 0x614 <_Z16motors_get_speedv>
     f44:	81 11       	cpse	r24, r1
     f46:	07 c0       	rjmp	.+14     	; 0xf56 <_Z18Task_SerialHandlerv+0x5c>
				isRCEnabled = true;
     f48:	81 e0       	ldi	r24, 0x01	; 1
     f4a:	80 93 06 01 	sts	0x0106, r24	; 0x800106 <isRCEnabled>
				digitalWrite(LED_BUILTIN, LOW);
     f4e:	60 e0       	ldi	r22, 0x00	; 0
     f50:	8d e0       	ldi	r24, 0x0D	; 13
     f52:	0e 94 46 0f 	call	0x1e8c	; 0x1e8c <digitalWrite>
			}
		}


		//-------------------------------------
		if (isRCEnabled){
     f56:	80 91 06 01 	lds	r24, 0x0106	; 0x800106 <isRCEnabled>
     f5a:	88 23       	and	r24, r24
     f5c:	09 f4       	brne	.+2      	; 0xf60 <_Z18Task_SerialHandlerv+0x66>
     f5e:	48 c0       	rjmp	.+144    	; 0xff0 <_Z18Task_SerialHandlerv+0xf6>
			// Bluetooth Remote Control commands
			if (Cmd=='F'){			// Forward command
     f60:	c6 34       	cpi	r28, 0x46	; 70
     f62:	19 f4       	brne	.+6      	; 0xf6a <_Z18Task_SerialHandlerv+0x70>
				motors_go_forward();
     f64:	0e 94 72 03 	call	0x6e4	; 0x6e4 <_Z17motors_go_forwardv>
     f68:	43 c0       	rjmp	.+134    	; 0xff0 <_Z18Task_SerialHandlerv+0xf6>
			}
			else if (Cmd=='G'){		// Forward Left command
     f6a:	c7 34       	cpi	r28, 0x47	; 71
     f6c:	19 f4       	brne	.+6      	; 0xf74 <_Z18Task_SerialHandlerv+0x7a>
				motors_go_forward_and_left();
     f6e:	0e 94 95 03 	call	0x72a	; 0x72a <_Z26motors_go_forward_and_leftv>
     f72:	3e c0       	rjmp	.+124    	; 0xff0 <_Z18Task_SerialHandlerv+0xf6>
			}

			else if (Cmd=='I'){		// Forward Right command
     f74:	c9 34       	cpi	r28, 0x49	; 73
     f76:	19 f4       	brne	.+6      	; 0xf7e <_Z18Task_SerialHandlerv+0x84>
				motors_go_forward_and_right();
     f78:	0e 94 be 03 	call	0x77c	; 0x77c <_Z27motors_go_forward_and_rightv>
     f7c:	39 c0       	rjmp	.+114    	; 0xff0 <_Z18Task_SerialHandlerv+0xf6>
			}

			else if (Cmd=='B'){		// Backward command
     f7e:	c2 34       	cpi	r28, 0x42	; 66
     f80:	19 f4       	brne	.+6      	; 0xf88 <_Z18Task_SerialHandlerv+0x8e>
				motors_go_backward();
     f82:	0e 94 e7 03 	call	0x7ce	; 0x7ce <_Z18motors_go_backwardv>
     f86:	34 c0       	rjmp	.+104    	; 0xff0 <_Z18Task_SerialHandlerv+0xf6>
			}

			else if (Cmd=='H'){		// Backward Left command
     f88:	c8 34       	cpi	r28, 0x48	; 72
     f8a:	19 f4       	brne	.+6      	; 0xf92 <_Z18Task_SerialHandlerv+0x98>
				motors_go_backward_and_left();
     f8c:	0e 94 0a 04 	call	0x814	; 0x814 <_Z27motors_go_backward_and_leftv>
     f90:	2f c0       	rjmp	.+94     	; 0xff0 <_Z18Task_SerialHandlerv+0xf6>
			}

			else if (Cmd=='J'){		// Backward Right command
     f92:	ca 34       	cpi	r28, 0x4A	; 74
     f94:	19 f4       	brne	.+6      	; 0xf9c <_Z18Task_SerialHandlerv+0xa2>
				motors_go_backward_and_right();
     f96:	0e 94 33 04 	call	0x866	; 0x866 <_Z28motors_go_backward_and_rightv>
     f9a:	2a c0       	rjmp	.+84     	; 0xff0 <_Z18Task_SerialHandlerv+0xf6>
			}

			else if (Cmd=='L'){		// Left command
     f9c:	cc 34       	cpi	r28, 0x4C	; 76
     f9e:	19 f4       	brne	.+6      	; 0xfa6 <_Z18Task_SerialHandlerv+0xac>
				motors_go_left();
     fa0:	0e 94 5c 04 	call	0x8b8	; 0x8b8 <_Z14motors_go_leftv>
     fa4:	25 c0       	rjmp	.+74     	; 0xff0 <_Z18Task_SerialHandlerv+0xf6>
			}

			else if (Cmd=='R'){		// Right command
     fa6:	c2 35       	cpi	r28, 0x52	; 82
     fa8:	19 f4       	brne	.+6      	; 0xfb0 <_Z18Task_SerialHandlerv+0xb6>
				motors_go_right();
     faa:	0e 94 85 04 	call	0x90a	; 0x90a <_Z15motors_go_rightv>
     fae:	20 c0       	rjmp	.+64     	; 0xff0 <_Z18Task_SerialHandlerv+0xf6>
			//}
			//else if (Cmd=='R'){
			//motors_correctspeed(1);
			//}

			else if (Cmd == 'S'){
     fb0:	c3 35       	cpi	r28, 0x53	; 83
     fb2:	29 f4       	brne	.+10     	; 0xfbe <_Z18Task_SerialHandlerv+0xc4>
				motors_speed_down(MOTORS_STOP_STEP,MOTORS_STOP_STEP);
     fb4:	64 e1       	ldi	r22, 0x14	; 20
     fb6:	84 e1       	ldi	r24, 0x14	; 20
     fb8:	0e 94 e3 02 	call	0x5c6	; 0x5c6 <_Z17motors_speed_downhh>
     fbc:	19 c0       	rjmp	.+50     	; 0xff0 <_Z18Task_SerialHandlerv+0xf6>
			else if (Cmd=='W'){		// Front lights on
			}
			else if (Cmd=='w'){		// Front lights off
			}

			else if (Cmd=='U'){		// Back lights on
     fbe:	8c 2f       	mov	r24, r28
     fc0:	8f 7d       	andi	r24, 0xDF	; 223
     fc2:	85 55       	subi	r24, 0x55	; 85
     fc4:	83 30       	cpi	r24, 0x03	; 3
     fc6:	a0 f0       	brcs	.+40     	; 0xff0 <_Z18Task_SerialHandlerv+0xf6>
			else if (Cmd=='v'){		// Horn sound stop
			}


			//---- ÍÓÏ‡Ì‰˚ ËÁÏÂÌÂÌËˇ ÒÍÓÓÒÚË ---------
			else if ((Cmd>='0' && Cmd<='9') || Cmd == 'q'){		// Speed 0/4
     fc8:	80 ed       	ldi	r24, 0xD0	; 208
     fca:	8c 0f       	add	r24, r28
     fcc:	8a 30       	cpi	r24, 0x0A	; 10
     fce:	18 f0       	brcs	.+6      	; 0xfd6 <_Z18Task_SerialHandlerv+0xdc>
     fd0:	c1 37       	cpi	r28, 0x71	; 113
     fd2:	81 f7       	brne	.-32     	; 0xfb4 <_Z18Task_SerialHandlerv+0xba>
				uint8_t newspeed;
				if (Cmd == 'q') newspeed = 10;
     fd4:	8a e0       	ldi	r24, 0x0A	; 10
				else newspeed = (uint8_t)(Cmd - '0');
				motors_set_max_speed(newspeed*(MOTOR_SPEED_MAX-MOTOR_SPEED_MIN)/10 + MOTOR_SPEED_MIN, false);
     fd6:	2f e5       	ldi	r18, 0x5F	; 95
     fd8:	82 9f       	mul	r24, r18
     fda:	c0 01       	movw	r24, r0
     fdc:	11 24       	eor	r1, r1
     fde:	6a e0       	ldi	r22, 0x0A	; 10
     fe0:	70 e0       	ldi	r23, 0x00	; 0
     fe2:	0e 94 e4 11 	call	0x23c8	; 0x23c8 <__divmodhi4>
     fe6:	86 2f       	mov	r24, r22
     fe8:	60 e0       	ldi	r22, 0x00	; 0
     fea:	8a 56       	subi	r24, 0x6A	; 106
     fec:	0e 94 19 03 	call	0x632	; 0x632 <_Z20motors_set_max_speedhb>
				motors_speed_down(20,20);	// ÂÒÎË Ó·Ì‡ÛÊÂÌ‡ ÌÂËÁ‚ÂÒÚÌ‡ˇ ÍÓÏ‡Ì‰‡, ÚÓ ÓÒÚ‡Ì‡‚ÎË‚‡ÂÏÒˇ, ˜ÚÓ·˚ ÌÂ ÔÓ‰ÓÎÊ‡Ú¸ ‰‚ËÊÂÌËÂ ·ÂÁ ÒÓÓÚ‚ÂÚÒÚ‚Û˛˘ÂÈ ÍÓÏ‡Ì‰˚.
			}

		}	//isRCEnabled

		lastCmd = Cmd;
     ff0:	c0 93 59 01 	sts	0x0159, r28	; 0x800159 <lastCmd>
		SendInfos();
	}
}
     ff4:	cf 91       	pop	r28
			}

		}	//isRCEnabled

		lastCmd = Cmd;
		SendInfos();
     ff6:	0c 94 40 07 	jmp	0xe80	; 0xe80 <_Z9SendInfosv>
	}
}
     ffa:	cf 91       	pop	r28
     ffc:	08 95       	ret

00000ffe <_Z19servo_positions_cntv>:
}

uint8_t servo_positions_cnt(void)
{
	return sizeof(servo_h_positions);
}
     ffe:	84 e0       	ldi	r24, 0x04	; 4
    1000:	08 95       	ret

00001002 <_Z23servo_h_getnextpositionv>:

uint8_t servo_h_getnextposition(void){

	if (++servo_h_position >= sizeof(servo_h_positions))
    1002:	80 91 61 01 	lds	r24, 0x0161	; 0x800161 <servo_h_position>
    1006:	8f 5f       	subi	r24, 0xFF	; 255
    1008:	84 30       	cpi	r24, 0x04	; 4
    100a:	18 f4       	brcc	.+6      	; 0x1012 <_Z23servo_h_getnextpositionv+0x10>
    100c:	80 93 61 01 	sts	0x0161, r24	; 0x800161 <servo_h_position>
    1010:	02 c0       	rjmp	.+4      	; 0x1016 <_Z23servo_h_getnextpositionv+0x14>
	servo_h_position = 0;
    1012:	10 92 61 01 	sts	0x0161, r1	; 0x800161 <servo_h_position>

	return (servo_h_positions[servo_h_position] + SERVO_H_POS_CORRECTION);
    1016:	e0 91 61 01 	lds	r30, 0x0161	; 0x800161 <servo_h_position>
    101a:	f0 e0       	ldi	r31, 0x00	; 0
    101c:	e9 5f       	subi	r30, 0xF9	; 249
    101e:	fe 4f       	sbci	r31, 0xFE	; 254
    1020:	80 81       	ld	r24, Z
    1022:	86 5f       	subi	r24, 0xF6	; 246
    1024:	08 95       	ret

00001026 <_Z17Task_ServoHandlerv>:
// Private
uint8_t ServoPhase = SERVO_PHASE_GETING_ANGLE;
uint8_t servo_h_getnextposition(void);


void Task_ServoHandler(void){
    1026:	0f 93       	push	r16
    1028:	1f 93       	push	r17
    102a:	cf 93       	push	r28
    102c:	df 93       	push	r29
    102e:	cd b7       	in	r28, 0x3d	; 61
    1030:	de b7       	in	r29, 0x3e	; 62
    1032:	62 97       	sbiw	r28, 0x12	; 18
    1034:	0f b6       	in	r0, 0x3f	; 63
    1036:	f8 94       	cli
    1038:	de bf       	out	0x3e, r29	; 62
    103a:	0f be       	out	0x3f, r0	; 63
    103c:	cd bf       	out	0x3d, r28	; 61
	if (millis() >= servo_h_rotationTimer) {
    103e:	0e 94 cf 0d 	call	0x1b9e	; 0x1b9e <millis>
    1042:	00 91 5d 01 	lds	r16, 0x015D	; 0x80015d <servo_h_rotationTimer>
    1046:	10 91 5e 01 	lds	r17, 0x015E	; 0x80015e <servo_h_rotationTimer+0x1>
    104a:	20 91 5f 01 	lds	r18, 0x015F	; 0x80015f <servo_h_rotationTimer+0x2>
    104e:	30 91 60 01 	lds	r19, 0x0160	; 0x800160 <servo_h_rotationTimer+0x3>
    1052:	60 17       	cp	r22, r16
    1054:	71 07       	cpc	r23, r17
    1056:	82 07       	cpc	r24, r18
    1058:	93 07       	cpc	r25, r19
    105a:	08 f4       	brcc	.+2      	; 0x105e <_Z17Task_ServoHandlerv+0x38>
    105c:	db c0       	rjmp	.+438    	; 0x1214 <_Z17Task_ServoHandlerv+0x1ee>


		switch(ServoPhase){
    105e:	80 91 5a 01 	lds	r24, 0x015A	; 0x80015a <ServoPhase>
    1062:	81 30       	cpi	r24, 0x01	; 1
    1064:	09 f4       	brne	.+2      	; 0x1068 <_Z17Task_ServoHandlerv+0x42>
    1066:	5f c0       	rjmp	.+190    	; 0x1126 <_Z17Task_ServoHandlerv+0x100>
    1068:	20 f0       	brcs	.+8      	; 0x1072 <_Z17Task_ServoHandlerv+0x4c>
    106a:	82 30       	cpi	r24, 0x02	; 2
    106c:	09 f4       	brne	.+2      	; 0x1070 <_Z17Task_ServoHandlerv+0x4a>
    106e:	84 c0       	rjmp	.+264    	; 0x1178 <_Z17Task_ServoHandlerv+0x152>
    1070:	c2 c0       	rjmp	.+388    	; 0x11f6 <_Z17Task_ServoHandlerv+0x1d0>
			case SERVO_PHASE_GETING_ANGLE:
				if (servo_doRotate){
    1072:	80 91 5c 01 	lds	r24, 0x015C	; 0x80015c <servo_doRotate>
    1076:	88 23       	and	r24, r24
    1078:	09 f4       	brne	.+2      	; 0x107c <_Z17Task_ServoHandlerv+0x56>
    107a:	cc c0       	rjmp	.+408    	; 0x1214 <_Z17Task_ServoHandlerv+0x1ee>
					servo_doRotate = false;
    107c:	10 92 5c 01 	sts	0x015C, r1	; 0x80015c <servo_doRotate>
					//isServoPositioned = false;

					servo_h.attach(SERVO_H_PIN);
    1080:	69 e0       	ldi	r22, 0x09	; 9
    1082:	70 e0       	ldi	r23, 0x00	; 0
    1084:	89 e6       	ldi	r24, 0x69	; 105
    1086:	91 e0       	ldi	r25, 0x01	; 1
    1088:	0e 94 7c 0a 	call	0x14f8	; 0x14f8 <_ZN5Servo6attachEi>
					uint8_t nextpos = servo_h_getnextposition();
    108c:	0e 94 01 08 	call	0x1002	; 0x1002 <_Z23servo_h_getnextpositionv>
    1090:	18 2f       	mov	r17, r24
					servo_h.write(nextpos);
    1092:	68 2f       	mov	r22, r24
    1094:	70 e0       	ldi	r23, 0x00	; 0
    1096:	89 e6       	ldi	r24, 0x69	; 105
    1098:	91 e0       	ldi	r25, 0x01	; 1
    109a:	0e 94 c5 0a 	call	0x158a	; 0x158a <_ZN5Servo5writeEi>

					ServoPhase = SERVO_PHASE_STOPED;
    109e:	81 e0       	ldi	r24, 0x01	; 1
    10a0:	80 93 5a 01 	sts	0x015A, r24	; 0x80015a <ServoPhase>
					servo_h_rotationTimer = millis() + SERVO_H_POSITIONING_DELAY;		// Á‡‰ÂÊÍ‡ Ì‡ ÓÍÓÌ˜‡ÌËÂ ÔÓ‚ÓÓÚ‡, Ú‡Í Í‡Í ÌÂÚ ‰‡Ú˜ËÍ‡ ‰Îˇ ˝ÚÓ„Ó
    10a4:	0e 94 cf 0d 	call	0x1b9e	; 0x1b9e <millis>
    10a8:	dc 01       	movw	r26, r24
    10aa:	cb 01       	movw	r24, r22
    10ac:	84 5d       	subi	r24, 0xD4	; 212
    10ae:	9e 4f       	sbci	r25, 0xFE	; 254
    10b0:	af 4f       	sbci	r26, 0xFF	; 255
    10b2:	bf 4f       	sbci	r27, 0xFF	; 255
    10b4:	80 93 5d 01 	sts	0x015D, r24	; 0x80015d <servo_h_rotationTimer>
    10b8:	90 93 5e 01 	sts	0x015E, r25	; 0x80015e <servo_h_rotationTimer+0x1>
    10bc:	a0 93 5f 01 	sts	0x015F, r26	; 0x80015f <servo_h_rotationTimer+0x2>
    10c0:	b0 93 60 01 	sts	0x0160, r27	; 0x800160 <servo_h_rotationTimer+0x3>

					Serial.println(String(millis()) + F("SERVO_PHASE_GETING_ANGLE. Next position = ") + String(nextpos));
    10c4:	4a e0       	ldi	r20, 0x0A	; 10
    10c6:	61 2f       	mov	r22, r17
    10c8:	ce 01       	movw	r24, r28
    10ca:	01 96       	adiw	r24, 0x01	; 1
    10cc:	0e 94 7d 10 	call	0x20fa	; 0x20fa <_ZN6StringC1Ehh>
    10d0:	0e 94 cf 0d 	call	0x1b9e	; 0x1b9e <millis>
    10d4:	ab 01       	movw	r20, r22
    10d6:	bc 01       	movw	r22, r24
    10d8:	2a e0       	ldi	r18, 0x0A	; 10
    10da:	ce 01       	movw	r24, r28
    10dc:	0d 96       	adiw	r24, 0x0d	; 13
    10de:	0e 94 d6 10 	call	0x21ac	; 0x21ac <_ZN6StringC1Emh>
{
public:
	StringSumHelper(const String &s) : String(s) {}
    10e2:	be 01       	movw	r22, r28
    10e4:	63 5f       	subi	r22, 0xF3	; 243
    10e6:	7f 4f       	sbci	r23, 0xFF	; 255
    10e8:	ce 01       	movw	r24, r28
    10ea:	07 96       	adiw	r24, 0x07	; 7
    10ec:	0e 94 5d 10 	call	0x20ba	; 0x20ba <_ZN6StringC1ERKS_>
    10f0:	65 ed       	ldi	r22, 0xD5	; 213
    10f2:	70 e0       	ldi	r23, 0x00	; 0
    10f4:	ce 01       	movw	r24, r28
    10f6:	07 96       	adiw	r24, 0x07	; 7
    10f8:	0e 94 a5 11 	call	0x234a	; 0x234a <_ZplRK15StringSumHelperPK19__FlashStringHelper>
    10fc:	be 01       	movw	r22, r28
    10fe:	6f 5f       	subi	r22, 0xFF	; 255
    1100:	7f 4f       	sbci	r23, 0xFF	; 255
    1102:	0e 94 92 11 	call	0x2324	; 0x2324 <_ZplRK15StringSumHelperRK6String>
    1106:	bc 01       	movw	r22, r24
    1108:	82 e9       	ldi	r24, 0x92	; 146
    110a:	91 e0       	ldi	r25, 0x01	; 1
    110c:	0e 94 73 0d 	call	0x1ae6	; 0x1ae6 <_ZN5Print7printlnERK6String>
       #if __cplusplus >= 201103L || defined(__GXX_EXPERIMENTAL_CXX0X__)
	void move(String &rhs);
	#endif
};

class StringSumHelper : public String
    1110:	ce 01       	movw	r24, r28
    1112:	07 96       	adiw	r24, 0x07	; 7
    1114:	0e 94 b7 0f 	call	0x1f6e	; 0x1f6e <_ZN6StringD1Ev>
    1118:	ce 01       	movw	r24, r28
    111a:	0d 96       	adiw	r24, 0x0d	; 13
    111c:	0e 94 b7 0f 	call	0x1f6e	; 0x1f6e <_ZN6StringD1Ev>
    1120:	ce 01       	movw	r24, r28
    1122:	01 96       	adiw	r24, 0x01	; 1
    1124:	61 c0       	rjmp	.+194    	; 0x11e8 <_Z17Task_ServoHandlerv+0x1c2>
				}
				break;

			case SERVO_PHASE_STOPED:
				servo_h.detach();
    1126:	89 e6       	ldi	r24, 0x69	; 105
    1128:	91 e0       	ldi	r25, 0x01	; 1
    112a:	0e 94 82 0a 	call	0x1504	; 0x1504 <_ZN5Servo6detachEv>
				//isServoPositioned = true;
				//isSonarStartMeasure = true;
				//isSonarEchoChecked = false;

				ServoPhase = SERVO_PHASE_WAITING;
    112e:	82 e0       	ldi	r24, 0x02	; 2
    1130:	80 93 5a 01 	sts	0x015A, r24	; 0x80015a <ServoPhase>
				servo_h_rotationTimer = millis() + SERVO_H_INTERRUPTION_STEP;
    1134:	0e 94 cf 0d 	call	0x1b9e	; 0x1b9e <millis>
    1138:	dc 01       	movw	r26, r24
    113a:	cb 01       	movw	r24, r22
    113c:	4e 96       	adiw	r24, 0x1e	; 30
    113e:	a1 1d       	adc	r26, r1
    1140:	b1 1d       	adc	r27, r1
    1142:	80 93 5d 01 	sts	0x015D, r24	; 0x80015d <servo_h_rotationTimer>
    1146:	90 93 5e 01 	sts	0x015E, r25	; 0x80015e <servo_h_rotationTimer+0x1>
    114a:	a0 93 5f 01 	sts	0x015F, r26	; 0x80015f <servo_h_rotationTimer+0x2>
    114e:	b0 93 60 01 	sts	0x0160, r27	; 0x800160 <servo_h_rotationTimer+0x3>

				Serial.println(String(millis()) + F("SERVO_PHASE_STOPED"));
    1152:	0e 94 cf 0d 	call	0x1b9e	; 0x1b9e <millis>
    1156:	ab 01       	movw	r20, r22
    1158:	bc 01       	movw	r22, r24
    115a:	2a e0       	ldi	r18, 0x0A	; 10
    115c:	ce 01       	movw	r24, r28
    115e:	07 96       	adiw	r24, 0x07	; 7
    1160:	0e 94 d6 10 	call	0x21ac	; 0x21ac <_ZN6StringC1Emh>
{
public:
	StringSumHelper(const String &s) : String(s) {}
    1164:	be 01       	movw	r22, r28
    1166:	69 5f       	subi	r22, 0xF9	; 249
    1168:	7f 4f       	sbci	r23, 0xFF	; 255
    116a:	ce 01       	movw	r24, r28
    116c:	01 96       	adiw	r24, 0x01	; 1
    116e:	0e 94 5d 10 	call	0x20ba	; 0x20ba <_ZN6StringC1ERKS_>
    1172:	62 ec       	ldi	r22, 0xC2	; 194
    1174:	70 e0       	ldi	r23, 0x00	; 0
    1176:	29 c0       	rjmp	.+82     	; 0x11ca <_Z17Task_ServoHandlerv+0x1a4>
				break;

			case SERVO_PHASE_WAITING:
				if (servo_doRotate){
    1178:	80 91 5c 01 	lds	r24, 0x015C	; 0x80015c <servo_doRotate>
    117c:	88 23       	and	r24, r24
    117e:	b9 f1       	breq	.+110    	; 0x11ee <_Z17Task_ServoHandlerv+0x1c8>
					servo_isWaiting = false;
    1180:	10 92 5b 01 	sts	0x015B, r1	; 0x80015b <servo_isWaiting>
					ServoPhase = SERVO_PHASE_GETING_ANGLE;
    1184:	10 92 5a 01 	sts	0x015A, r1	; 0x80015a <ServoPhase>
					servo_h_rotationTimer = millis() + SERVO_H_INTERRUPTION_STEP;
    1188:	0e 94 cf 0d 	call	0x1b9e	; 0x1b9e <millis>
    118c:	dc 01       	movw	r26, r24
    118e:	cb 01       	movw	r24, r22
    1190:	4e 96       	adiw	r24, 0x1e	; 30
    1192:	a1 1d       	adc	r26, r1
    1194:	b1 1d       	adc	r27, r1
    1196:	80 93 5d 01 	sts	0x015D, r24	; 0x80015d <servo_h_rotationTimer>
    119a:	90 93 5e 01 	sts	0x015E, r25	; 0x80015e <servo_h_rotationTimer+0x1>
    119e:	a0 93 5f 01 	sts	0x015F, r26	; 0x80015f <servo_h_rotationTimer+0x2>
    11a2:	b0 93 60 01 	sts	0x0160, r27	; 0x800160 <servo_h_rotationTimer+0x3>

					Serial.println(String(millis()) + F("SERVO_PHASE_WAITING"));
    11a6:	0e 94 cf 0d 	call	0x1b9e	; 0x1b9e <millis>
    11aa:	ab 01       	movw	r20, r22
    11ac:	bc 01       	movw	r22, r24
    11ae:	2a e0       	ldi	r18, 0x0A	; 10
    11b0:	ce 01       	movw	r24, r28
    11b2:	07 96       	adiw	r24, 0x07	; 7
    11b4:	0e 94 d6 10 	call	0x21ac	; 0x21ac <_ZN6StringC1Emh>
    11b8:	be 01       	movw	r22, r28
    11ba:	69 5f       	subi	r22, 0xF9	; 249
    11bc:	7f 4f       	sbci	r23, 0xFF	; 255
    11be:	ce 01       	movw	r24, r28
    11c0:	01 96       	adiw	r24, 0x01	; 1
    11c2:	0e 94 5d 10 	call	0x20ba	; 0x20ba <_ZN6StringC1ERKS_>
    11c6:	6e ea       	ldi	r22, 0xAE	; 174
    11c8:	70 e0       	ldi	r23, 0x00	; 0
    11ca:	ce 01       	movw	r24, r28
    11cc:	01 96       	adiw	r24, 0x01	; 1
    11ce:	0e 94 a5 11 	call	0x234a	; 0x234a <_ZplRK15StringSumHelperPK19__FlashStringHelper>
    11d2:	bc 01       	movw	r22, r24
    11d4:	82 e9       	ldi	r24, 0x92	; 146
    11d6:	91 e0       	ldi	r25, 0x01	; 1
    11d8:	0e 94 73 0d 	call	0x1ae6	; 0x1ae6 <_ZN5Print7printlnERK6String>
       #if __cplusplus >= 201103L || defined(__GXX_EXPERIMENTAL_CXX0X__)
	void move(String &rhs);
	#endif
};

class StringSumHelper : public String
    11dc:	ce 01       	movw	r24, r28
    11de:	01 96       	adiw	r24, 0x01	; 1
    11e0:	0e 94 b7 0f 	call	0x1f6e	; 0x1f6e <_ZN6StringD1Ev>
    11e4:	ce 01       	movw	r24, r28
    11e6:	07 96       	adiw	r24, 0x07	; 7
    11e8:	0e 94 b7 0f 	call	0x1f6e	; 0x1f6e <_ZN6StringD1Ev>
    11ec:	13 c0       	rjmp	.+38     	; 0x1214 <_Z17Task_ServoHandlerv+0x1ee>
				}
				else
					servo_isWaiting = true;
    11ee:	81 e0       	ldi	r24, 0x01	; 1
    11f0:	80 93 5b 01 	sts	0x015B, r24	; 0x80015b <servo_isWaiting>
    11f4:	0f c0       	rjmp	.+30     	; 0x1214 <_Z17Task_ServoHandlerv+0x1ee>
				break;

			default:
				servo_h_rotationTimer = millis() + SERVO_H_INTERRUPTION_STEP;		// Á‡‰ÂÊÍ‡ ‰Ó ÒÎÂ‰Û˛˘Â„Ó Ó·‡˘ÂÌËˇ
    11f6:	0e 94 cf 0d 	call	0x1b9e	; 0x1b9e <millis>
    11fa:	dc 01       	movw	r26, r24
    11fc:	cb 01       	movw	r24, r22
    11fe:	4e 96       	adiw	r24, 0x1e	; 30
    1200:	a1 1d       	adc	r26, r1
    1202:	b1 1d       	adc	r27, r1
    1204:	80 93 5d 01 	sts	0x015D, r24	; 0x80015d <servo_h_rotationTimer>
    1208:	90 93 5e 01 	sts	0x015E, r25	; 0x80015e <servo_h_rotationTimer+0x1>
    120c:	a0 93 5f 01 	sts	0x015F, r26	; 0x80015f <servo_h_rotationTimer+0x2>
    1210:	b0 93 60 01 	sts	0x0160, r27	; 0x800160 <servo_h_rotationTimer+0x3>
				break;
		}
	}
}
    1214:	62 96       	adiw	r28, 0x12	; 18
    1216:	0f b6       	in	r0, 0x3f	; 63
    1218:	f8 94       	cli
    121a:	de bf       	out	0x3e, r29	; 62
    121c:	0f be       	out	0x3f, r0	; 63
    121e:	cd bf       	out	0x3d, r28	; 61
    1220:	df 91       	pop	r29
    1222:	cf 91       	pop	r28
    1224:	1f 91       	pop	r17
    1226:	0f 91       	pop	r16
    1228:	08 95       	ret

0000122a <_GLOBAL__sub_I_servo_h>:
#include <Arduino.h>
#include "ServoTask.h"
//#include "Servo.h"

// Public
Servo servo_h;
    122a:	89 e6       	ldi	r24, 0x69	; 105
    122c:	91 e0       	ldi	r25, 0x01	; 1
    122e:	0e 94 de 09 	call	0x13bc	; 0x13bc <_ZN5ServoC1Ev>
Servo servo_v;
    1232:	86 e6       	ldi	r24, 0x66	; 102
    1234:	91 e0       	ldi	r25, 0x01	; 1
    1236:	0c 94 de 09 	jmp	0x13bc	; 0x13bc <_ZN5ServoC1Ev>

0000123a <__vector_11>:

#ifndef WIRING // Wiring pre-defines signal handlers so don't define any if compiling for the Wiring platform
// Interrupt handlers for Arduino
#if defined(_useTimer1)
SIGNAL (TIMER1_COMPA_vect)
{
    123a:	1f 92       	push	r1
    123c:	0f 92       	push	r0
    123e:	0f b6       	in	r0, 0x3f	; 63
    1240:	0f 92       	push	r0
    1242:	11 24       	eor	r1, r1
    1244:	2f 93       	push	r18
    1246:	3f 93       	push	r19
    1248:	4f 93       	push	r20
    124a:	5f 93       	push	r21
    124c:	6f 93       	push	r22
    124e:	7f 93       	push	r23
    1250:	8f 93       	push	r24
    1252:	9f 93       	push	r25
    1254:	af 93       	push	r26
    1256:	bf 93       	push	r27
    1258:	ef 93       	push	r30
    125a:	ff 93       	push	r31

/************ static functions common to all instances ***********************/

static inline void handle_interrupts(timer16_Sequence_t timer, volatile uint16_t *TCNTn, volatile uint16_t* OCRnA)
{
  if( Channel[timer] < 0 )
    125c:	80 91 6d 01 	lds	r24, 0x016D	; 0x80016d <_ZL7Channel>
    1260:	87 ff       	sbrs	r24, 7
    1262:	05 c0       	rjmp	.+10     	; 0x126e <__vector_11+0x34>
    *TCNTn = 0; // channel set to -1 indicated that refresh interval completed so reset the timer
    1264:	10 92 85 00 	sts	0x0085, r1	; 0x800085 <__TEXT_REGION_LENGTH__+0x7e0085>
    1268:	10 92 84 00 	sts	0x0084, r1	; 0x800084 <__TEXT_REGION_LENGTH__+0x7e0084>
    126c:	1b c0       	rjmp	.+54     	; 0x12a4 <__vector_11+0x6a>
  else{
    if( SERVO_INDEX(timer,Channel[timer]) < ServoCount && SERVO(timer,Channel[timer]).Pin.isActive == true )
    126e:	20 91 6d 01 	lds	r18, 0x016D	; 0x80016d <_ZL7Channel>
    1272:	02 2e       	mov	r0, r18
    1274:	00 0c       	add	r0, r0
    1276:	33 0b       	sbc	r19, r19
    1278:	80 91 6c 01 	lds	r24, 0x016C	; 0x80016c <ServoCount>
    127c:	90 e0       	ldi	r25, 0x00	; 0
    127e:	28 17       	cp	r18, r24
    1280:	39 07       	cpc	r19, r25
    1282:	84 f4       	brge	.+32     	; 0x12a4 <__vector_11+0x6a>
    1284:	80 91 6d 01 	lds	r24, 0x016D	; 0x80016d <_ZL7Channel>
    1288:	08 2e       	mov	r0, r24
    128a:	00 0c       	add	r0, r0
    128c:	99 0b       	sbc	r25, r25
    128e:	fc 01       	movw	r30, r24
    1290:	ee 0f       	add	r30, r30
    1292:	ff 1f       	adc	r31, r31
    1294:	8e 0f       	add	r24, r30
    1296:	9f 1f       	adc	r25, r31
    1298:	fc 01       	movw	r30, r24
    129a:	e2 59       	subi	r30, 0x92	; 146
    129c:	fe 4f       	sbci	r31, 0xFE	; 254
    129e:	80 81       	ld	r24, Z
    12a0:	86 fd       	sbrc	r24, 6
    12a2:	15 c0       	rjmp	.+42     	; 0x12ce <__vector_11+0x94>
      digitalWrite( SERVO(timer,Channel[timer]).Pin.nbr,LOW); // pulse this channel low if activated
  }

  Channel[timer]++;    // increment to the next channel
    12a4:	80 91 6d 01 	lds	r24, 0x016D	; 0x80016d <_ZL7Channel>
    12a8:	8f 5f       	subi	r24, 0xFF	; 255
    12aa:	80 93 6d 01 	sts	0x016D, r24	; 0x80016d <_ZL7Channel>
  if( SERVO_INDEX(timer,Channel[timer]) < ServoCount && Channel[timer] < SERVOS_PER_TIMER) {
    12ae:	20 91 6d 01 	lds	r18, 0x016D	; 0x80016d <_ZL7Channel>
    12b2:	02 2e       	mov	r0, r18
    12b4:	00 0c       	add	r0, r0
    12b6:	33 0b       	sbc	r19, r19
    12b8:	80 91 6c 01 	lds	r24, 0x016C	; 0x80016c <ServoCount>
    12bc:	90 e0       	ldi	r25, 0x00	; 0
    12be:	28 17       	cp	r18, r24
    12c0:	39 07       	cpc	r19, r25
    12c2:	c4 f4       	brge	.+48     	; 0x12f4 <__vector_11+0xba>
    12c4:	80 91 6d 01 	lds	r24, 0x016D	; 0x80016d <_ZL7Channel>
    12c8:	8c 30       	cpi	r24, 0x0C	; 12
    12ca:	64 f1       	brlt	.+88     	; 0x1324 <__vector_11+0xea>
    12cc:	13 c0       	rjmp	.+38     	; 0x12f4 <__vector_11+0xba>
{
  if( Channel[timer] < 0 )
    *TCNTn = 0; // channel set to -1 indicated that refresh interval completed so reset the timer
  else{
    if( SERVO_INDEX(timer,Channel[timer]) < ServoCount && SERVO(timer,Channel[timer]).Pin.isActive == true )
      digitalWrite( SERVO(timer,Channel[timer]).Pin.nbr,LOW); // pulse this channel low if activated
    12ce:	80 91 6d 01 	lds	r24, 0x016D	; 0x80016d <_ZL7Channel>
    12d2:	08 2e       	mov	r0, r24
    12d4:	00 0c       	add	r0, r0
    12d6:	99 0b       	sbc	r25, r25
    12d8:	fc 01       	movw	r30, r24
    12da:	ee 0f       	add	r30, r30
    12dc:	ff 1f       	adc	r31, r31
    12de:	8e 0f       	add	r24, r30
    12e0:	9f 1f       	adc	r25, r31
    12e2:	fc 01       	movw	r30, r24
    12e4:	e2 59       	subi	r30, 0x92	; 146
    12e6:	fe 4f       	sbci	r31, 0xFE	; 254
    12e8:	80 81       	ld	r24, Z
    12ea:	60 e0       	ldi	r22, 0x00	; 0
    12ec:	8f 73       	andi	r24, 0x3F	; 63
    12ee:	0e 94 46 0f 	call	0x1e8c	; 0x1e8c <digitalWrite>
    12f2:	d8 cf       	rjmp	.-80     	; 0x12a4 <__vector_11+0x6a>
    if(SERVO(timer,Channel[timer]).Pin.isActive == true)     // check if activated
      digitalWrite( SERVO(timer,Channel[timer]).Pin.nbr,HIGH); // its an active channel so pulse it high
  }
  else {
    // finished all channels so wait for the refresh period to expire before starting over
    if( ((unsigned)*TCNTn) + 4 < usToTicks(REFRESH_INTERVAL) )  // allow a few ticks to ensure the next OCR1A not missed
    12f4:	80 91 84 00 	lds	r24, 0x0084	; 0x800084 <__TEXT_REGION_LENGTH__+0x7e0084>
    12f8:	90 91 85 00 	lds	r25, 0x0085	; 0x800085 <__TEXT_REGION_LENGTH__+0x7e0085>
    12fc:	04 96       	adiw	r24, 0x04	; 4
    12fe:	80 34       	cpi	r24, 0x40	; 64
    1300:	9c 49       	sbci	r25, 0x9C	; 156
    1302:	18 f4       	brcc	.+6      	; 0x130a <__vector_11+0xd0>
      *OCRnA = (unsigned int)usToTicks(REFRESH_INTERVAL);
    1304:	80 e4       	ldi	r24, 0x40	; 64
    1306:	9c e9       	ldi	r25, 0x9C	; 156
    1308:	05 c0       	rjmp	.+10     	; 0x1314 <__vector_11+0xda>
    else
      *OCRnA = *TCNTn + 4;  // at least REFRESH_INTERVAL has elapsed
    130a:	80 91 84 00 	lds	r24, 0x0084	; 0x800084 <__TEXT_REGION_LENGTH__+0x7e0084>
    130e:	90 91 85 00 	lds	r25, 0x0085	; 0x800085 <__TEXT_REGION_LENGTH__+0x7e0085>
    1312:	04 96       	adiw	r24, 0x04	; 4
    1314:	90 93 89 00 	sts	0x0089, r25	; 0x800089 <__TEXT_REGION_LENGTH__+0x7e0089>
    1318:	80 93 88 00 	sts	0x0088, r24	; 0x800088 <__TEXT_REGION_LENGTH__+0x7e0088>
    Channel[timer] = -1; // this will get incremented at the end of the refresh period to start again at the first channel
    131c:	8f ef       	ldi	r24, 0xFF	; 255
    131e:	80 93 6d 01 	sts	0x016D, r24	; 0x80016d <_ZL7Channel>
    1322:	3b c0       	rjmp	.+118    	; 0x139a <__vector_11+0x160>
      digitalWrite( SERVO(timer,Channel[timer]).Pin.nbr,LOW); // pulse this channel low if activated
  }

  Channel[timer]++;    // increment to the next channel
  if( SERVO_INDEX(timer,Channel[timer]) < ServoCount && Channel[timer] < SERVOS_PER_TIMER) {
    *OCRnA = *TCNTn + SERVO(timer,Channel[timer]).ticks;
    1324:	20 91 84 00 	lds	r18, 0x0084	; 0x800084 <__TEXT_REGION_LENGTH__+0x7e0084>
    1328:	30 91 85 00 	lds	r19, 0x0085	; 0x800085 <__TEXT_REGION_LENGTH__+0x7e0085>
    132c:	80 91 6d 01 	lds	r24, 0x016D	; 0x80016d <_ZL7Channel>
    1330:	08 2e       	mov	r0, r24
    1332:	00 0c       	add	r0, r0
    1334:	99 0b       	sbc	r25, r25
    1336:	fc 01       	movw	r30, r24
    1338:	ee 0f       	add	r30, r30
    133a:	ff 1f       	adc	r31, r31
    133c:	8e 0f       	add	r24, r30
    133e:	9f 1f       	adc	r25, r31
    1340:	fc 01       	movw	r30, r24
    1342:	e2 59       	subi	r30, 0x92	; 146
    1344:	fe 4f       	sbci	r31, 0xFE	; 254
    1346:	81 81       	ldd	r24, Z+1	; 0x01
    1348:	92 81       	ldd	r25, Z+2	; 0x02
    134a:	82 0f       	add	r24, r18
    134c:	93 1f       	adc	r25, r19
    134e:	90 93 89 00 	sts	0x0089, r25	; 0x800089 <__TEXT_REGION_LENGTH__+0x7e0089>
    1352:	80 93 88 00 	sts	0x0088, r24	; 0x800088 <__TEXT_REGION_LENGTH__+0x7e0088>
    if(SERVO(timer,Channel[timer]).Pin.isActive == true)     // check if activated
    1356:	80 91 6d 01 	lds	r24, 0x016D	; 0x80016d <_ZL7Channel>
    135a:	08 2e       	mov	r0, r24
    135c:	00 0c       	add	r0, r0
    135e:	99 0b       	sbc	r25, r25
    1360:	fc 01       	movw	r30, r24
    1362:	ee 0f       	add	r30, r30
    1364:	ff 1f       	adc	r31, r31
    1366:	8e 0f       	add	r24, r30
    1368:	9f 1f       	adc	r25, r31
    136a:	fc 01       	movw	r30, r24
    136c:	e2 59       	subi	r30, 0x92	; 146
    136e:	fe 4f       	sbci	r31, 0xFE	; 254
    1370:	80 81       	ld	r24, Z
    1372:	86 ff       	sbrs	r24, 6
    1374:	12 c0       	rjmp	.+36     	; 0x139a <__vector_11+0x160>
      digitalWrite( SERVO(timer,Channel[timer]).Pin.nbr,HIGH); // its an active channel so pulse it high
    1376:	80 91 6d 01 	lds	r24, 0x016D	; 0x80016d <_ZL7Channel>
    137a:	08 2e       	mov	r0, r24
    137c:	00 0c       	add	r0, r0
    137e:	99 0b       	sbc	r25, r25
    1380:	fc 01       	movw	r30, r24
    1382:	ee 0f       	add	r30, r30
    1384:	ff 1f       	adc	r31, r31
    1386:	8e 0f       	add	r24, r30
    1388:	9f 1f       	adc	r25, r31
    138a:	fc 01       	movw	r30, r24
    138c:	e2 59       	subi	r30, 0x92	; 146
    138e:	fe 4f       	sbci	r31, 0xFE	; 254
    1390:	80 81       	ld	r24, Z
    1392:	61 e0       	ldi	r22, 0x01	; 1
    1394:	8f 73       	andi	r24, 0x3F	; 63
    1396:	0e 94 46 0f 	call	0x1e8c	; 0x1e8c <digitalWrite>
// Interrupt handlers for Arduino
#if defined(_useTimer1)
SIGNAL (TIMER1_COMPA_vect)
{
  handle_interrupts(_timer1, &TCNT1, &OCR1A);
}
    139a:	ff 91       	pop	r31
    139c:	ef 91       	pop	r30
    139e:	bf 91       	pop	r27
    13a0:	af 91       	pop	r26
    13a2:	9f 91       	pop	r25
    13a4:	8f 91       	pop	r24
    13a6:	7f 91       	pop	r23
    13a8:	6f 91       	pop	r22
    13aa:	5f 91       	pop	r21
    13ac:	4f 91       	pop	r20
    13ae:	3f 91       	pop	r19
    13b0:	2f 91       	pop	r18
    13b2:	0f 90       	pop	r0
    13b4:	0f be       	out	0x3f, r0	; 63
    13b6:	0f 90       	pop	r0
    13b8:	1f 90       	pop	r1
    13ba:	18 95       	reti

000013bc <_ZN5ServoC1Ev>:
}


/****************** end of static functions ******************************/

Servo::Servo()
    13bc:	fc 01       	movw	r30, r24
{
  if( ServoCount < MAX_SERVOS) {
    13be:	90 91 6c 01 	lds	r25, 0x016C	; 0x80016c <ServoCount>
    13c2:	9c 30       	cpi	r25, 0x0C	; 12
    13c4:	a0 f4       	brcc	.+40     	; 0x13ee <_ZN5ServoC1Ev+0x32>
    this->servoIndex = ServoCount++;                    // assign a servo index to this instance
    13c6:	81 e0       	ldi	r24, 0x01	; 1
    13c8:	89 0f       	add	r24, r25
    13ca:	80 93 6c 01 	sts	0x016C, r24	; 0x80016c <ServoCount>
    13ce:	90 83       	st	Z, r25
	servos[this->servoIndex].ticks = usToTicks(DEFAULT_PULSE_WIDTH);   // store default values  - 12 Aug 2009
    13d0:	89 2f       	mov	r24, r25
    13d2:	90 e0       	ldi	r25, 0x00	; 0
    13d4:	fc 01       	movw	r30, r24
    13d6:	ee 0f       	add	r30, r30
    13d8:	ff 1f       	adc	r31, r31
    13da:	8e 0f       	add	r24, r30
    13dc:	9f 1f       	adc	r25, r31
    13de:	fc 01       	movw	r30, r24
    13e0:	e2 59       	subi	r30, 0x92	; 146
    13e2:	fe 4f       	sbci	r31, 0xFE	; 254
    13e4:	88 eb       	ldi	r24, 0xB8	; 184
    13e6:	9b e0       	ldi	r25, 0x0B	; 11
    13e8:	92 83       	std	Z+2, r25	; 0x02
    13ea:	81 83       	std	Z+1, r24	; 0x01
    13ec:	08 95       	ret
  }
  else
    this->servoIndex = INVALID_SERVO ;  // too many servos
    13ee:	8f ef       	ldi	r24, 0xFF	; 255
    13f0:	80 83       	st	Z, r24
    13f2:	08 95       	ret

000013f4 <_ZN5Servo6attachEiii>:
{
  return this->attach(pin, MIN_PULSE_WIDTH, MAX_PULSE_WIDTH);
}

uint8_t Servo::attach(int pin, int min, int max)
{
    13f4:	df 92       	push	r13
    13f6:	ef 92       	push	r14
    13f8:	ff 92       	push	r15
    13fa:	0f 93       	push	r16
    13fc:	1f 93       	push	r17
    13fe:	cf 93       	push	r28
    1400:	df 93       	push	r29
    1402:	ec 01       	movw	r28, r24
    1404:	d6 2e       	mov	r13, r22
    1406:	7a 01       	movw	r14, r20
    1408:	89 01       	movw	r16, r18
  if(this->servoIndex < MAX_SERVOS ) {
    140a:	88 81       	ld	r24, Y
    140c:	8c 30       	cpi	r24, 0x0C	; 12
    140e:	08 f0       	brcs	.+2      	; 0x1412 <_ZN5Servo6attachEiii+0x1e>
    1410:	6a c0       	rjmp	.+212    	; 0x14e6 <_ZN5Servo6attachEiii+0xf2>
    pinMode( pin, OUTPUT) ;                                   // set servo pin to output
    1412:	61 e0       	ldi	r22, 0x01	; 1
    1414:	8d 2d       	mov	r24, r13
    1416:	0e 94 0a 0f 	call	0x1e14	; 0x1e14 <pinMode>
    servos[this->servoIndex].Pin.nbr = pin;
    141a:	88 81       	ld	r24, Y
    141c:	e8 2f       	mov	r30, r24
    141e:	f0 e0       	ldi	r31, 0x00	; 0
    1420:	9f 01       	movw	r18, r30
    1422:	22 0f       	add	r18, r18
    1424:	33 1f       	adc	r19, r19
    1426:	e2 0f       	add	r30, r18
    1428:	f3 1f       	adc	r31, r19
    142a:	e2 59       	subi	r30, 0x92	; 146
    142c:	fe 4f       	sbci	r31, 0xFE	; 254
    142e:	9d 2d       	mov	r25, r13
    1430:	9f 73       	andi	r25, 0x3F	; 63
    1432:	20 81       	ld	r18, Z
    1434:	20 7c       	andi	r18, 0xC0	; 192
    1436:	d2 2e       	mov	r13, r18
    1438:	d9 2a       	or	r13, r25
    143a:	d0 82       	st	Z, r13
    // todo min/max check: abs(min - MIN_PULSE_WIDTH) /4 < 128
    this->min  = (MIN_PULSE_WIDTH - min)/4; //resolution of min/max is 4 uS
    143c:	60 e2       	ldi	r22, 0x20	; 32
    143e:	72 e0       	ldi	r23, 0x02	; 2
    1440:	ab 01       	movw	r20, r22
    1442:	4e 19       	sub	r20, r14
    1444:	5f 09       	sbc	r21, r15
    1446:	57 ff       	sbrs	r21, 7
    1448:	02 c0       	rjmp	.+4      	; 0x144e <_ZN5Servo6attachEiii+0x5a>
    144a:	4d 5f       	subi	r20, 0xFD	; 253
    144c:	5f 4f       	sbci	r21, 0xFF	; 255
    144e:	55 95       	asr	r21
    1450:	47 95       	ror	r20
    1452:	55 95       	asr	r21
    1454:	47 95       	ror	r20
    1456:	49 83       	std	Y+1, r20	; 0x01
    this->max  = (MAX_PULSE_WIDTH - max)/4;
    1458:	40 e6       	ldi	r20, 0x60	; 96
    145a:	59 e0       	ldi	r21, 0x09	; 9
    145c:	9a 01       	movw	r18, r20
    145e:	20 1b       	sub	r18, r16
    1460:	31 0b       	sbc	r19, r17
    1462:	37 ff       	sbrs	r19, 7
    1464:	02 c0       	rjmp	.+4      	; 0x146a <_ZN5Servo6attachEiii+0x76>
    1466:	2d 5f       	subi	r18, 0xFD	; 253
    1468:	3f 4f       	sbci	r19, 0xFF	; 255
    146a:	35 95       	asr	r19
    146c:	27 95       	ror	r18
    146e:	35 95       	asr	r19
    1470:	27 95       	ror	r18
    1472:	2a 83       	std	Y+2, r18	; 0x02
    // initialize the timer if it has not already been initialized
    timer16_Sequence_t timer = SERVO_INDEX_TO_TIMER(servoIndex);
    1474:	2c e0       	ldi	r18, 0x0C	; 12
    1476:	62 2f       	mov	r22, r18
    1478:	0e 94 c4 11 	call	0x2388	; 0x2388 <__udivmodqi4>

static boolean isTimerActive(timer16_Sequence_t timer)
{
  // returns true if any servo is active on this timer
  for(uint8_t channel=0; channel < SERVOS_PER_TIMER; channel++) {
    if(SERVO(timer,channel).Pin.isActive == true)
    147c:	28 9f       	mul	r18, r24
    147e:	b0 01       	movw	r22, r0
    1480:	11 24       	eor	r1, r1
    1482:	40 e0       	ldi	r20, 0x00	; 0
    1484:	50 e0       	ldi	r21, 0x00	; 0
    1486:	9a 01       	movw	r18, r20
    1488:	26 0f       	add	r18, r22
    148a:	37 1f       	adc	r19, r23
    148c:	f9 01       	movw	r30, r18
    148e:	ee 0f       	add	r30, r30
    1490:	ff 1f       	adc	r31, r31
    1492:	2e 0f       	add	r18, r30
    1494:	3f 1f       	adc	r19, r31
    1496:	f9 01       	movw	r30, r18
    1498:	e2 59       	subi	r30, 0x92	; 146
    149a:	fe 4f       	sbci	r31, 0xFE	; 254
    149c:	90 81       	ld	r25, Z
    149e:	96 fd       	sbrc	r25, 6
    14a0:	16 c0       	rjmp	.+44     	; 0x14ce <_ZN5Servo6attachEiii+0xda>
    14a2:	4f 5f       	subi	r20, 0xFF	; 255
    14a4:	5f 4f       	sbci	r21, 0xFF	; 255
}

static boolean isTimerActive(timer16_Sequence_t timer)
{
  // returns true if any servo is active on this timer
  for(uint8_t channel=0; channel < SERVOS_PER_TIMER; channel++) {
    14a6:	4c 30       	cpi	r20, 0x0C	; 12
    14a8:	51 05       	cpc	r21, r1
    14aa:	69 f7       	brne	.-38     	; 0x1486 <_ZN5Servo6attachEiii+0x92>


static void initISR(timer16_Sequence_t timer)
{
#if defined (_useTimer1)
  if(timer == _timer1) {
    14ac:	81 11       	cpse	r24, r1
    14ae:	0f c0       	rjmp	.+30     	; 0x14ce <_ZN5Servo6attachEiii+0xda>
    TCCR1A = 0;             // normal counting mode
    14b0:	10 92 80 00 	sts	0x0080, r1	; 0x800080 <__TEXT_REGION_LENGTH__+0x7e0080>
    TCCR1B = _BV(CS11);     // set prescaler of 8
    14b4:	82 e0       	ldi	r24, 0x02	; 2
    14b6:	80 93 81 00 	sts	0x0081, r24	; 0x800081 <__TEXT_REGION_LENGTH__+0x7e0081>
    TCNT1 = 0;              // clear the timer count
    14ba:	10 92 85 00 	sts	0x0085, r1	; 0x800085 <__TEXT_REGION_LENGTH__+0x7e0085>
    14be:	10 92 84 00 	sts	0x0084, r1	; 0x800084 <__TEXT_REGION_LENGTH__+0x7e0084>
#if defined(__AVR_ATmega8__)|| defined(__AVR_ATmega128__)
    TIFR |= _BV(OCF1A);      // clear any pending interrupts;
    TIMSK |=  _BV(OCIE1A) ;  // enable the output compare interrupt
#else
    // here if not ATmega8 or ATmega128
    TIFR1 |= _BV(OCF1A);     // clear any pending interrupts;
    14c2:	b1 9a       	sbi	0x16, 1	; 22
    TIMSK1 |=  _BV(OCIE1A) ; // enable the output compare interrupt
    14c4:	80 91 6f 00 	lds	r24, 0x006F	; 0x80006f <__TEXT_REGION_LENGTH__+0x7e006f>
    14c8:	82 60       	ori	r24, 0x02	; 2
    14ca:	80 93 6f 00 	sts	0x006F, r24	; 0x80006f <__TEXT_REGION_LENGTH__+0x7e006f>
    this->max  = (MAX_PULSE_WIDTH - max)/4;
    // initialize the timer if it has not already been initialized
    timer16_Sequence_t timer = SERVO_INDEX_TO_TIMER(servoIndex);
    if(isTimerActive(timer) == false)
      initISR(timer);
    servos[this->servoIndex].Pin.isActive = true;  // this must be set after the check for isTimerActive
    14ce:	e8 81       	ld	r30, Y
    14d0:	f0 e0       	ldi	r31, 0x00	; 0
    14d2:	cf 01       	movw	r24, r30
    14d4:	88 0f       	add	r24, r24
    14d6:	99 1f       	adc	r25, r25
    14d8:	e8 0f       	add	r30, r24
    14da:	f9 1f       	adc	r31, r25
    14dc:	e2 59       	subi	r30, 0x92	; 146
    14de:	fe 4f       	sbci	r31, 0xFE	; 254
    14e0:	80 81       	ld	r24, Z
    14e2:	80 64       	ori	r24, 0x40	; 64
    14e4:	80 83       	st	Z, r24
  }
  return this->servoIndex ;
    14e6:	88 81       	ld	r24, Y
}
    14e8:	df 91       	pop	r29
    14ea:	cf 91       	pop	r28
    14ec:	1f 91       	pop	r17
    14ee:	0f 91       	pop	r16
    14f0:	ff 90       	pop	r15
    14f2:	ef 90       	pop	r14
    14f4:	df 90       	pop	r13
    14f6:	08 95       	ret

000014f8 <_ZN5Servo6attachEi>:
    this->servoIndex = INVALID_SERVO ;  // too many servos
}

uint8_t Servo::attach(int pin)
{
  return this->attach(pin, MIN_PULSE_WIDTH, MAX_PULSE_WIDTH);
    14f8:	20 e6       	ldi	r18, 0x60	; 96
    14fa:	39 e0       	ldi	r19, 0x09	; 9
    14fc:	40 e2       	ldi	r20, 0x20	; 32
    14fe:	52 e0       	ldi	r21, 0x02	; 2
    1500:	0c 94 fa 09 	jmp	0x13f4	; 0x13f4 <_ZN5Servo6attachEiii>

00001504 <_ZN5Servo6detachEv>:
  return this->servoIndex ;
}

void Servo::detach()
{
  servos[this->servoIndex].Pin.isActive = false;
    1504:	dc 01       	movw	r26, r24
    1506:	ec 91       	ld	r30, X
    1508:	f0 e0       	ldi	r31, 0x00	; 0
    150a:	cf 01       	movw	r24, r30
    150c:	88 0f       	add	r24, r24
    150e:	99 1f       	adc	r25, r25
    1510:	e8 0f       	add	r30, r24
    1512:	f9 1f       	adc	r31, r25
    1514:	e2 59       	subi	r30, 0x92	; 146
    1516:	fe 4f       	sbci	r31, 0xFE	; 254
    1518:	80 81       	ld	r24, Z
    151a:	8f 7b       	andi	r24, 0xBF	; 191
    151c:	80 83       	st	Z, r24
    151e:	08 95       	ret

00001520 <_ZN5Servo17writeMicrosecondsEi>:
  }
  this->writeMicroseconds(value);
}

void Servo::writeMicroseconds(int value)
{
    1520:	fc 01       	movw	r30, r24
  // calculate and store the values for the given channel
  byte channel = this->servoIndex;
    1522:	90 81       	ld	r25, Z
  if( (channel < MAX_SERVOS) )   // ensure channel is valid
    1524:	9c 30       	cpi	r25, 0x0C	; 12
    1526:	80 f5       	brcc	.+96     	; 0x1588 <_ZN5Servo17writeMicrosecondsEi+0x68>
  {
    if( value < SERVO_MIN() )          // ensure pulse width is valid
    1528:	81 81       	ldd	r24, Z+1	; 0x01
    152a:	28 e8       	ldi	r18, 0x88	; 136
    152c:	30 e0       	ldi	r19, 0x00	; 0
    152e:	28 1b       	sub	r18, r24
    1530:	31 09       	sbc	r19, r1
    1532:	87 fd       	sbrc	r24, 7
    1534:	33 95       	inc	r19
    1536:	22 0f       	add	r18, r18
    1538:	33 1f       	adc	r19, r19
    153a:	22 0f       	add	r18, r18
    153c:	33 1f       	adc	r19, r19
    153e:	62 17       	cp	r22, r18
    1540:	73 07       	cpc	r23, r19
    1542:	7c f0       	brlt	.+30     	; 0x1562 <_ZN5Servo17writeMicrosecondsEi+0x42>
      value = SERVO_MIN();
    else if( value > SERVO_MAX() )
    1544:	82 81       	ldd	r24, Z+2	; 0x02
    1546:	28 e5       	ldi	r18, 0x58	; 88
    1548:	32 e0       	ldi	r19, 0x02	; 2
    154a:	28 1b       	sub	r18, r24
    154c:	31 09       	sbc	r19, r1
    154e:	87 fd       	sbrc	r24, 7
    1550:	33 95       	inc	r19
    1552:	22 0f       	add	r18, r18
    1554:	33 1f       	adc	r19, r19
    1556:	22 0f       	add	r18, r18
    1558:	33 1f       	adc	r19, r19
    155a:	62 17       	cp	r22, r18
    155c:	73 07       	cpc	r23, r19
    155e:	0c f4       	brge	.+2      	; 0x1562 <_ZN5Servo17writeMicrosecondsEi+0x42>
    1560:	9b 01       	movw	r18, r22
      value = SERVO_MAX();

    value = value - TRIM_DURATION;
    1562:	22 50       	subi	r18, 0x02	; 2
    1564:	31 09       	sbc	r19, r1
    value = usToTicks(value);  // convert to ticks after compensating for interrupt overhead - 12 Aug 2009
    1566:	22 0f       	add	r18, r18
    1568:	33 1f       	adc	r19, r19

    uint8_t oldSREG = SREG;
    156a:	4f b7       	in	r20, 0x3f	; 63
    cli();
    156c:	f8 94       	cli
    servos[channel].ticks = value;
    156e:	89 2f       	mov	r24, r25
    1570:	90 e0       	ldi	r25, 0x00	; 0
    1572:	fc 01       	movw	r30, r24
    1574:	ee 0f       	add	r30, r30
    1576:	ff 1f       	adc	r31, r31
    1578:	8e 0f       	add	r24, r30
    157a:	9f 1f       	adc	r25, r31
    157c:	fc 01       	movw	r30, r24
    157e:	e2 59       	subi	r30, 0x92	; 146
    1580:	fe 4f       	sbci	r31, 0xFE	; 254
    1582:	32 83       	std	Z+2, r19	; 0x02
    1584:	21 83       	std	Z+1, r18	; 0x01
    SREG = oldSREG;
    1586:	4f bf       	out	0x3f, r20	; 63
    1588:	08 95       	ret

0000158a <_ZN5Servo5writeEi>:
    finISR(timer);
  }
}

void Servo::write(int value)
{
    158a:	af 92       	push	r10
    158c:	bf 92       	push	r11
    158e:	cf 92       	push	r12
    1590:	df 92       	push	r13
    1592:	ef 92       	push	r14
    1594:	ff 92       	push	r15
    1596:	0f 93       	push	r16
    1598:	1f 93       	push	r17
    159a:	cf 93       	push	r28
    159c:	df 93       	push	r29
    159e:	ec 01       	movw	r28, r24
  if(value < MIN_PULSE_WIDTH)
    15a0:	60 32       	cpi	r22, 0x20	; 32
    15a2:	82 e0       	ldi	r24, 0x02	; 2
    15a4:	78 07       	cpc	r23, r24
    15a6:	0c f0       	brlt	.+2      	; 0x15aa <_ZN5Servo5writeEi+0x20>
    15a8:	3f c0       	rjmp	.+126    	; 0x1628 <_ZN5Servo5writeEi+0x9e>
  {  // treat values less than 544 as angles in degrees (valid values in microseconds are handled as microseconds)
    if(value < 0) value = 0;
    15aa:	77 fd       	sbrc	r23, 7
    15ac:	06 c0       	rjmp	.+12     	; 0x15ba <_ZN5Servo5writeEi+0x30>
    if(value > 180) value = 180;
    15ae:	65 3b       	cpi	r22, 0xB5	; 181
    15b0:	71 05       	cpc	r23, r1
    15b2:	2c f0       	brlt	.+10     	; 0x15be <_ZN5Servo5writeEi+0x34>
    15b4:	64 eb       	ldi	r22, 0xB4	; 180
    15b6:	70 e0       	ldi	r23, 0x00	; 0
    15b8:	02 c0       	rjmp	.+4      	; 0x15be <_ZN5Servo5writeEi+0x34>

void Servo::write(int value)
{
  if(value < MIN_PULSE_WIDTH)
  {  // treat values less than 544 as angles in degrees (valid values in microseconds are handled as microseconds)
    if(value < 0) value = 0;
    15ba:	60 e0       	ldi	r22, 0x00	; 0
    15bc:	70 e0       	ldi	r23, 0x00	; 0
    if(value > 180) value = 180;
    value = map(value, 0, 180, SERVO_MIN(),  SERVO_MAX());
    15be:	89 81       	ldd	r24, Y+1	; 0x01
    15c0:	28 e8       	ldi	r18, 0x88	; 136
    15c2:	30 e0       	ldi	r19, 0x00	; 0
    15c4:	59 01       	movw	r10, r18
    15c6:	a8 1a       	sub	r10, r24
    15c8:	b1 08       	sbc	r11, r1
    15ca:	87 fd       	sbrc	r24, 7
    15cc:	b3 94       	inc	r11
    15ce:	aa 0c       	add	r10, r10
    15d0:	bb 1c       	adc	r11, r11
    15d2:	aa 0c       	add	r10, r10
    15d4:	bb 1c       	adc	r11, r11
    15d6:	0b 2c       	mov	r0, r11
    15d8:	00 0c       	add	r0, r0
    15da:	cc 08       	sbc	r12, r12
    15dc:	dd 08       	sbc	r13, r13
    15de:	07 2e       	mov	r0, r23
    15e0:	00 0c       	add	r0, r0
    15e2:	88 0b       	sbc	r24, r24
    15e4:	99 0b       	sbc	r25, r25
    15e6:	2a 81       	ldd	r18, Y+2	; 0x02
    15e8:	08 e5       	ldi	r16, 0x58	; 88
    15ea:	12 e0       	ldi	r17, 0x02	; 2
    15ec:	02 1b       	sub	r16, r18
    15ee:	11 09       	sbc	r17, r1
    15f0:	27 fd       	sbrc	r18, 7
    15f2:	13 95       	inc	r17
    15f4:	00 0f       	add	r16, r16
    15f6:	11 1f       	adc	r17, r17
    15f8:	00 0f       	add	r16, r16
    15fa:	11 1f       	adc	r17, r17
    15fc:	01 2e       	mov	r0, r17
    15fe:	00 0c       	add	r0, r0
    1600:	22 0b       	sbc	r18, r18
    1602:	33 0b       	sbc	r19, r19
    1604:	3f 93       	push	r19
    1606:	2f 93       	push	r18
    1608:	1f 93       	push	r17
    160a:	0f 93       	push	r16
    160c:	14 eb       	ldi	r17, 0xB4	; 180
    160e:	e1 2e       	mov	r14, r17
    1610:	f1 2c       	mov	r15, r1
    1612:	00 e0       	ldi	r16, 0x00	; 0
    1614:	10 e0       	ldi	r17, 0x00	; 0
    1616:	20 e0       	ldi	r18, 0x00	; 0
    1618:	30 e0       	ldi	r19, 0x00	; 0
    161a:	a9 01       	movw	r20, r18
    161c:	0e 94 76 0f 	call	0x1eec	; 0x1eec <_Z3maplllll>
    1620:	0f 90       	pop	r0
    1622:	0f 90       	pop	r0
    1624:	0f 90       	pop	r0
    1626:	0f 90       	pop	r0
  }
  this->writeMicroseconds(value);
    1628:	ce 01       	movw	r24, r28
}
    162a:	df 91       	pop	r29
    162c:	cf 91       	pop	r28
    162e:	1f 91       	pop	r17
    1630:	0f 91       	pop	r16
    1632:	ff 90       	pop	r15
    1634:	ef 90       	pop	r14
    1636:	df 90       	pop	r13
    1638:	cf 90       	pop	r12
    163a:	bf 90       	pop	r11
    163c:	af 90       	pop	r10
  {  // treat values less than 544 as angles in degrees (valid values in microseconds are handled as microseconds)
    if(value < 0) value = 0;
    if(value > 180) value = 180;
    value = map(value, 0, 180, SERVO_MIN(),  SERVO_MAX());
  }
  this->writeMicroseconds(value);
    163e:	0c 94 90 0a 	jmp	0x1520	; 0x1520 <_ZN5Servo17writeMicrosecondsEi>

00001642 <_ZN14HardwareSerial9availableEv>:
  // clear any received data
  _rx_buffer_head = _rx_buffer_tail;
}

int HardwareSerial::available(void)
{
    1642:	fc 01       	movw	r30, r24
  return ((unsigned int)(SERIAL_RX_BUFFER_SIZE + _rx_buffer_head - _rx_buffer_tail)) % SERIAL_RX_BUFFER_SIZE;
    1644:	91 8d       	ldd	r25, Z+25	; 0x19
    1646:	22 8d       	ldd	r18, Z+26	; 0x1a
    1648:	89 2f       	mov	r24, r25
    164a:	90 e0       	ldi	r25, 0x00	; 0
    164c:	80 5c       	subi	r24, 0xC0	; 192
    164e:	9f 4f       	sbci	r25, 0xFF	; 255
    1650:	82 1b       	sub	r24, r18
    1652:	91 09       	sbc	r25, r1
}
    1654:	8f 73       	andi	r24, 0x3F	; 63
    1656:	99 27       	eor	r25, r25
    1658:	08 95       	ret

0000165a <_ZN14HardwareSerial4peekEv>:

int HardwareSerial::peek(void)
{
    165a:	fc 01       	movw	r30, r24
  if (_rx_buffer_head == _rx_buffer_tail) {
    165c:	91 8d       	ldd	r25, Z+25	; 0x19
    165e:	82 8d       	ldd	r24, Z+26	; 0x1a
    1660:	98 17       	cp	r25, r24
    1662:	31 f0       	breq	.+12     	; 0x1670 <_ZN14HardwareSerial4peekEv+0x16>
    return -1;
  } else {
    return _rx_buffer[_rx_buffer_tail];
    1664:	82 8d       	ldd	r24, Z+26	; 0x1a
    1666:	e8 0f       	add	r30, r24
    1668:	f1 1d       	adc	r31, r1
    166a:	85 8d       	ldd	r24, Z+29	; 0x1d
    166c:	90 e0       	ldi	r25, 0x00	; 0
    166e:	08 95       	ret
}

int HardwareSerial::peek(void)
{
  if (_rx_buffer_head == _rx_buffer_tail) {
    return -1;
    1670:	8f ef       	ldi	r24, 0xFF	; 255
    1672:	9f ef       	ldi	r25, 0xFF	; 255
  } else {
    return _rx_buffer[_rx_buffer_tail];
  }
}
    1674:	08 95       	ret

00001676 <_ZN14HardwareSerial4readEv>:

int HardwareSerial::read(void)
{
    1676:	fc 01       	movw	r30, r24
  // if the head isn't ahead of the tail, we don't have any characters
  if (_rx_buffer_head == _rx_buffer_tail) {
    1678:	91 8d       	ldd	r25, Z+25	; 0x19
    167a:	82 8d       	ldd	r24, Z+26	; 0x1a
    167c:	98 17       	cp	r25, r24
    167e:	61 f0       	breq	.+24     	; 0x1698 <_ZN14HardwareSerial4readEv+0x22>
    return -1;
  } else {
    unsigned char c = _rx_buffer[_rx_buffer_tail];
    1680:	82 8d       	ldd	r24, Z+26	; 0x1a
    1682:	df 01       	movw	r26, r30
    1684:	a8 0f       	add	r26, r24
    1686:	b1 1d       	adc	r27, r1
    1688:	5d 96       	adiw	r26, 0x1d	; 29
    168a:	8c 91       	ld	r24, X
    _rx_buffer_tail = (rx_buffer_index_t)(_rx_buffer_tail + 1) % SERIAL_RX_BUFFER_SIZE;
    168c:	92 8d       	ldd	r25, Z+26	; 0x1a
    168e:	9f 5f       	subi	r25, 0xFF	; 255
    1690:	9f 73       	andi	r25, 0x3F	; 63
    1692:	92 8f       	std	Z+26, r25	; 0x1a
    return c;
    1694:	90 e0       	ldi	r25, 0x00	; 0
    1696:	08 95       	ret

int HardwareSerial::read(void)
{
  // if the head isn't ahead of the tail, we don't have any characters
  if (_rx_buffer_head == _rx_buffer_tail) {
    return -1;
    1698:	8f ef       	ldi	r24, 0xFF	; 255
    169a:	9f ef       	ldi	r25, 0xFF	; 255
  } else {
    unsigned char c = _rx_buffer[_rx_buffer_tail];
    _rx_buffer_tail = (rx_buffer_index_t)(_rx_buffer_tail + 1) % SERIAL_RX_BUFFER_SIZE;
    return c;
  }
}
    169c:	08 95       	ret

0000169e <_Z14serialEventRunv>:
#endif

void serialEventRun(void)
{
#if defined(HAVE_HWSERIAL0)
  if (Serial0_available && serialEvent && Serial0_available()) serialEvent();
    169e:	84 ea       	ldi	r24, 0xA4	; 164
    16a0:	9c e0       	ldi	r25, 0x0C	; 12
    16a2:	89 2b       	or	r24, r25
    16a4:	49 f0       	breq	.+18     	; 0x16b8 <_Z14serialEventRunv+0x1a>
    16a6:	80 e0       	ldi	r24, 0x00	; 0
    16a8:	90 e0       	ldi	r25, 0x00	; 0
    16aa:	89 2b       	or	r24, r25
    16ac:	29 f0       	breq	.+10     	; 0x16b8 <_Z14serialEventRunv+0x1a>
    16ae:	0e 94 a4 0c 	call	0x1948	; 0x1948 <_Z17Serial0_availablev>
    16b2:	81 11       	cpse	r24, r1
    16b4:	0c 94 00 00 	jmp	0	; 0x0 <__vectors>
    16b8:	08 95       	ret

000016ba <_ZN14HardwareSerial17_tx_udr_empty_irqEv>:
}

// Actual interrupt handlers //////////////////////////////////////////////////////////////

void HardwareSerial::_tx_udr_empty_irq(void)
{
    16ba:	fc 01       	movw	r30, r24
  // If interrupts are enabled, there must be more data in the output
  // buffer. Send the next byte
  unsigned char c = _tx_buffer[_tx_buffer_tail];
    16bc:	84 8d       	ldd	r24, Z+28	; 0x1c
    16be:	df 01       	movw	r26, r30
    16c0:	a8 0f       	add	r26, r24
    16c2:	b1 1d       	adc	r27, r1
    16c4:	a3 5a       	subi	r26, 0xA3	; 163
    16c6:	bf 4f       	sbci	r27, 0xFF	; 255
    16c8:	2c 91       	ld	r18, X
  _tx_buffer_tail = (_tx_buffer_tail + 1) % SERIAL_TX_BUFFER_SIZE;
    16ca:	84 8d       	ldd	r24, Z+28	; 0x1c
    16cc:	90 e0       	ldi	r25, 0x00	; 0
    16ce:	01 96       	adiw	r24, 0x01	; 1
    16d0:	8f 73       	andi	r24, 0x3F	; 63
    16d2:	99 27       	eor	r25, r25
    16d4:	84 8f       	std	Z+28, r24	; 0x1c

  *_udr = c;
    16d6:	a6 89       	ldd	r26, Z+22	; 0x16
    16d8:	b7 89       	ldd	r27, Z+23	; 0x17
    16da:	2c 93       	st	X, r18

  // clear the TXC bit -- "can be cleared by writing a one to its bit
  // location". This makes sure flush() won't return until the bytes
  // actually got written
  sbi(*_ucsra, TXC0);
    16dc:	a0 89       	ldd	r26, Z+16	; 0x10
    16de:	b1 89       	ldd	r27, Z+17	; 0x11
    16e0:	8c 91       	ld	r24, X
    16e2:	80 64       	ori	r24, 0x40	; 64
    16e4:	8c 93       	st	X, r24

  if (_tx_buffer_head == _tx_buffer_tail) {
    16e6:	93 8d       	ldd	r25, Z+27	; 0x1b
    16e8:	84 8d       	ldd	r24, Z+28	; 0x1c
    16ea:	98 13       	cpse	r25, r24
    16ec:	06 c0       	rjmp	.+12     	; 0x16fa <_ZN14HardwareSerial17_tx_udr_empty_irqEv+0x40>
    // Buffer empty, so disable interrupts
    cbi(*_ucsrb, UDRIE0);
    16ee:	02 88       	ldd	r0, Z+18	; 0x12
    16f0:	f3 89       	ldd	r31, Z+19	; 0x13
    16f2:	e0 2d       	mov	r30, r0
    16f4:	80 81       	ld	r24, Z
    16f6:	8f 7d       	andi	r24, 0xDF	; 223
    16f8:	80 83       	st	Z, r24
    16fa:	08 95       	ret

000016fc <_ZN14HardwareSerial5flushEv>:
  if (head >= tail) return SERIAL_TX_BUFFER_SIZE - 1 - head + tail;
  return tail - head - 1;
}

void HardwareSerial::flush()
{
    16fc:	cf 93       	push	r28
    16fe:	df 93       	push	r29
    1700:	ec 01       	movw	r28, r24
  // If we have never written a byte, no need to flush. This special
  // case is needed since there is no way to force the TXC (transmit
  // complete) bit to 1 during initialization
  if (!_written)
    1702:	88 8d       	ldd	r24, Y+24	; 0x18
    1704:	88 23       	and	r24, r24
    1706:	c9 f0       	breq	.+50     	; 0x173a <_ZN14HardwareSerial5flushEv+0x3e>
    return;

  while (bit_is_set(*_ucsrb, UDRIE0) || bit_is_clear(*_ucsra, TXC0)) {
    1708:	ea 89       	ldd	r30, Y+18	; 0x12
    170a:	fb 89       	ldd	r31, Y+19	; 0x13
    170c:	80 81       	ld	r24, Z
    170e:	85 fd       	sbrc	r24, 5
    1710:	05 c0       	rjmp	.+10     	; 0x171c <_ZN14HardwareSerial5flushEv+0x20>
    1712:	a8 89       	ldd	r26, Y+16	; 0x10
    1714:	b9 89       	ldd	r27, Y+17	; 0x11
    1716:	8c 91       	ld	r24, X
    1718:	86 fd       	sbrc	r24, 6
    171a:	0f c0       	rjmp	.+30     	; 0x173a <_ZN14HardwareSerial5flushEv+0x3e>
    if (bit_is_clear(SREG, SREG_I) && bit_is_set(*_ucsrb, UDRIE0))
    171c:	0f b6       	in	r0, 0x3f	; 63
    171e:	07 fc       	sbrc	r0, 7
    1720:	f5 cf       	rjmp	.-22     	; 0x170c <_ZN14HardwareSerial5flushEv+0x10>
    1722:	80 81       	ld	r24, Z
    1724:	85 ff       	sbrs	r24, 5
    1726:	f2 cf       	rjmp	.-28     	; 0x170c <_ZN14HardwareSerial5flushEv+0x10>
	// Interrupts are globally disabled, but the DR empty
	// interrupt should be enabled, so poll the DR empty flag to
	// prevent deadlock
	if (bit_is_set(*_ucsra, UDRE0))
    1728:	a8 89       	ldd	r26, Y+16	; 0x10
    172a:	b9 89       	ldd	r27, Y+17	; 0x11
    172c:	8c 91       	ld	r24, X
    172e:	85 ff       	sbrs	r24, 5
    1730:	ed cf       	rjmp	.-38     	; 0x170c <_ZN14HardwareSerial5flushEv+0x10>
	  _tx_udr_empty_irq();
    1732:	ce 01       	movw	r24, r28
    1734:	0e 94 5d 0b 	call	0x16ba	; 0x16ba <_ZN14HardwareSerial17_tx_udr_empty_irqEv>
    1738:	e7 cf       	rjmp	.-50     	; 0x1708 <_ZN14HardwareSerial5flushEv+0xc>
  }
  // If we get here, nothing is queued anymore (DRIE is disabled) and
  // the hardware finished tranmission (TXC is set).
}
    173a:	df 91       	pop	r29
    173c:	cf 91       	pop	r28
    173e:	08 95       	ret

00001740 <_ZN14HardwareSerial5writeEh>:

size_t HardwareSerial::write(uint8_t c)
{
    1740:	ef 92       	push	r14
    1742:	ff 92       	push	r15
    1744:	0f 93       	push	r16
    1746:	1f 93       	push	r17
    1748:	cf 93       	push	r28
    174a:	df 93       	push	r29
    174c:	ec 01       	movw	r28, r24
  _written = true;
    174e:	81 e0       	ldi	r24, 0x01	; 1
    1750:	88 8f       	std	Y+24, r24	; 0x18
  // If the buffer and the data register is empty, just write the byte
  // to the data register and be done. This shortcut helps
  // significantly improve the effective datarate at high (>
  // 500kbit/s) bitrates, where interrupt overhead becomes a slowdown.
  if (_tx_buffer_head == _tx_buffer_tail && bit_is_set(*_ucsra, UDRE0)) {
    1752:	9b 8d       	ldd	r25, Y+27	; 0x1b
    1754:	8c 8d       	ldd	r24, Y+28	; 0x1c
    1756:	98 13       	cpse	r25, r24
    1758:	05 c0       	rjmp	.+10     	; 0x1764 <_ZN14HardwareSerial5writeEh+0x24>
    175a:	e8 89       	ldd	r30, Y+16	; 0x10
    175c:	f9 89       	ldd	r31, Y+17	; 0x11
    175e:	80 81       	ld	r24, Z
    1760:	85 fd       	sbrc	r24, 5
    1762:	24 c0       	rjmp	.+72     	; 0x17ac <_ZN14HardwareSerial5writeEh+0x6c>
    1764:	f6 2e       	mov	r15, r22
    *_udr = c;
    sbi(*_ucsra, TXC0);
    return 1;
  }
  tx_buffer_index_t i = (_tx_buffer_head + 1) % SERIAL_TX_BUFFER_SIZE;
    1766:	0b 8d       	ldd	r16, Y+27	; 0x1b
    1768:	10 e0       	ldi	r17, 0x00	; 0
    176a:	0f 5f       	subi	r16, 0xFF	; 255
    176c:	1f 4f       	sbci	r17, 0xFF	; 255
    176e:	0f 73       	andi	r16, 0x3F	; 63
    1770:	11 27       	eor	r17, r17
    1772:	e0 2e       	mov	r14, r16
	
  // If the output buffer is full, there's nothing for it other than to 
  // wait for the interrupt handler to empty it a bit
  while (i == _tx_buffer_tail) {
    1774:	8c 8d       	ldd	r24, Y+28	; 0x1c
    1776:	e8 12       	cpse	r14, r24
    1778:	0c c0       	rjmp	.+24     	; 0x1792 <_ZN14HardwareSerial5writeEh+0x52>
    if (bit_is_clear(SREG, SREG_I)) {
    177a:	0f b6       	in	r0, 0x3f	; 63
    177c:	07 fc       	sbrc	r0, 7
    177e:	fa cf       	rjmp	.-12     	; 0x1774 <_ZN14HardwareSerial5writeEh+0x34>
      // Interrupts are disabled, so we'll have to poll the data
      // register empty flag ourselves. If it is set, pretend an
      // interrupt has happened and call the handler to free up
      // space for us.
      if(bit_is_set(*_ucsra, UDRE0))
    1780:	e8 89       	ldd	r30, Y+16	; 0x10
    1782:	f9 89       	ldd	r31, Y+17	; 0x11
    1784:	80 81       	ld	r24, Z
    1786:	85 ff       	sbrs	r24, 5
    1788:	f5 cf       	rjmp	.-22     	; 0x1774 <_ZN14HardwareSerial5writeEh+0x34>
	_tx_udr_empty_irq();
    178a:	ce 01       	movw	r24, r28
    178c:	0e 94 5d 0b 	call	0x16ba	; 0x16ba <_ZN14HardwareSerial17_tx_udr_empty_irqEv>
    1790:	f1 cf       	rjmp	.-30     	; 0x1774 <_ZN14HardwareSerial5writeEh+0x34>
    } else {
      // nop, the interrupt handler will free up space for us
    }
  }

  _tx_buffer[_tx_buffer_head] = c;
    1792:	8b 8d       	ldd	r24, Y+27	; 0x1b
    1794:	fe 01       	movw	r30, r28
    1796:	e8 0f       	add	r30, r24
    1798:	f1 1d       	adc	r31, r1
    179a:	e3 5a       	subi	r30, 0xA3	; 163
    179c:	ff 4f       	sbci	r31, 0xFF	; 255
    179e:	f0 82       	st	Z, r15
  _tx_buffer_head = i;
    17a0:	0b 8f       	std	Y+27, r16	; 0x1b
	
  sbi(*_ucsrb, UDRIE0);
    17a2:	ea 89       	ldd	r30, Y+18	; 0x12
    17a4:	fb 89       	ldd	r31, Y+19	; 0x13
    17a6:	80 81       	ld	r24, Z
    17a8:	80 62       	ori	r24, 0x20	; 32
    17aa:	07 c0       	rjmp	.+14     	; 0x17ba <_ZN14HardwareSerial5writeEh+0x7a>
  // If the buffer and the data register is empty, just write the byte
  // to the data register and be done. This shortcut helps
  // significantly improve the effective datarate at high (>
  // 500kbit/s) bitrates, where interrupt overhead becomes a slowdown.
  if (_tx_buffer_head == _tx_buffer_tail && bit_is_set(*_ucsra, UDRE0)) {
    *_udr = c;
    17ac:	ee 89       	ldd	r30, Y+22	; 0x16
    17ae:	ff 89       	ldd	r31, Y+23	; 0x17
    17b0:	60 83       	st	Z, r22
    sbi(*_ucsra, TXC0);
    17b2:	e8 89       	ldd	r30, Y+16	; 0x10
    17b4:	f9 89       	ldd	r31, Y+17	; 0x11
    17b6:	80 81       	ld	r24, Z
    17b8:	80 64       	ori	r24, 0x40	; 64
    17ba:	80 83       	st	Z, r24
  _tx_buffer_head = i;
	
  sbi(*_ucsrb, UDRIE0);
  
  return 1;
}
    17bc:	81 e0       	ldi	r24, 0x01	; 1
    17be:	90 e0       	ldi	r25, 0x00	; 0
    17c0:	df 91       	pop	r29
    17c2:	cf 91       	pop	r28
    17c4:	1f 91       	pop	r17
    17c6:	0f 91       	pop	r16
    17c8:	ff 90       	pop	r15
    17ca:	ef 90       	pop	r14
    17cc:	08 95       	ret

000017ce <_ZN14HardwareSerial5beginEmh>:
}

// Public Methods //////////////////////////////////////////////////////////////

void HardwareSerial::begin(unsigned long baud, byte config)
{
    17ce:	cf 92       	push	r12
    17d0:	df 92       	push	r13
    17d2:	ef 92       	push	r14
    17d4:	ff 92       	push	r15
    17d6:	1f 93       	push	r17
    17d8:	cf 93       	push	r28
    17da:	df 93       	push	r29
    17dc:	ec 01       	movw	r28, r24
    17de:	6a 01       	movw	r12, r20
    17e0:	7b 01       	movw	r14, r22
    17e2:	12 2f       	mov	r17, r18
  // Try u2x mode first
  uint16_t baud_setting = (F_CPU / 4 / baud - 1) / 2;
  *_ucsra = 1 << U2X0;
    17e4:	e8 89       	ldd	r30, Y+16	; 0x10
    17e6:	f9 89       	ldd	r31, Y+17	; 0x11
    17e8:	82 e0       	ldi	r24, 0x02	; 2
    17ea:	80 83       	st	Z, r24
  // hardcoded exception for 57600 for compatibility with the bootloader
  // shipped with the Duemilanove and previous boards and the firmware
  // on the 8U2 on the Uno and Mega 2560. Also, The baud_setting cannot
  // be > 4095, so switch back to non-u2x mode if the baud rate is too
  // low.
  if (((F_CPU == 16000000UL) && (baud == 57600)) || (baud_setting >4095))
    17ec:	41 15       	cp	r20, r1
    17ee:	51 4e       	sbci	r21, 0xE1	; 225
    17f0:	61 05       	cpc	r22, r1
    17f2:	71 05       	cpc	r23, r1
    17f4:	b1 f0       	breq	.+44     	; 0x1822 <_ZN14HardwareSerial5beginEmh+0x54>
// Public Methods //////////////////////////////////////////////////////////////

void HardwareSerial::begin(unsigned long baud, byte config)
{
  // Try u2x mode first
  uint16_t baud_setting = (F_CPU / 4 / baud - 1) / 2;
    17f6:	60 e0       	ldi	r22, 0x00	; 0
    17f8:	79 e0       	ldi	r23, 0x09	; 9
    17fa:	8d e3       	ldi	r24, 0x3D	; 61
    17fc:	90 e0       	ldi	r25, 0x00	; 0
    17fe:	a7 01       	movw	r20, r14
    1800:	96 01       	movw	r18, r12
    1802:	0e 94 f8 11 	call	0x23f0	; 0x23f0 <__udivmodsi4>
    1806:	da 01       	movw	r26, r20
    1808:	c9 01       	movw	r24, r18
    180a:	01 97       	sbiw	r24, 0x01	; 1
    180c:	a1 09       	sbc	r26, r1
    180e:	b1 09       	sbc	r27, r1
    1810:	b6 95       	lsr	r27
    1812:	a7 95       	ror	r26
    1814:	97 95       	ror	r25
    1816:	87 95       	ror	r24
    1818:	ac 01       	movw	r20, r24
  // hardcoded exception for 57600 for compatibility with the bootloader
  // shipped with the Duemilanove and previous boards and the firmware
  // on the 8U2 on the Uno and Mega 2560. Also, The baud_setting cannot
  // be > 4095, so switch back to non-u2x mode if the baud rate is too
  // low.
  if (((F_CPU == 16000000UL) && (baud == 57600)) || (baud_setting >4095))
    181a:	41 15       	cp	r20, r1
    181c:	80 e1       	ldi	r24, 0x10	; 16
    181e:	58 07       	cpc	r21, r24
    1820:	a8 f0       	brcs	.+42     	; 0x184c <_ZN14HardwareSerial5beginEmh+0x7e>
  {
    *_ucsra = 0;
    1822:	e8 89       	ldd	r30, Y+16	; 0x10
    1824:	f9 89       	ldd	r31, Y+17	; 0x11
    1826:	10 82       	st	Z, r1
    baud_setting = (F_CPU / 8 / baud - 1) / 2;
    1828:	60 e8       	ldi	r22, 0x80	; 128
    182a:	74 e8       	ldi	r23, 0x84	; 132
    182c:	8e e1       	ldi	r24, 0x1E	; 30
    182e:	90 e0       	ldi	r25, 0x00	; 0
    1830:	a7 01       	movw	r20, r14
    1832:	96 01       	movw	r18, r12
    1834:	0e 94 f8 11 	call	0x23f0	; 0x23f0 <__udivmodsi4>
    1838:	ba 01       	movw	r22, r20
    183a:	a9 01       	movw	r20, r18
    183c:	41 50       	subi	r20, 0x01	; 1
    183e:	51 09       	sbc	r21, r1
    1840:	61 09       	sbc	r22, r1
    1842:	71 09       	sbc	r23, r1
    1844:	76 95       	lsr	r23
    1846:	67 95       	ror	r22
    1848:	57 95       	ror	r21
    184a:	47 95       	ror	r20
  }

  // assign the baud_setting, a.k.a. ubrr (USART Baud Rate Register)
  *_ubrrh = baud_setting >> 8;
    184c:	ec 85       	ldd	r30, Y+12	; 0x0c
    184e:	fd 85       	ldd	r31, Y+13	; 0x0d
    1850:	50 83       	st	Z, r21
  *_ubrrl = baud_setting;
    1852:	ee 85       	ldd	r30, Y+14	; 0x0e
    1854:	ff 85       	ldd	r31, Y+15	; 0x0f
    1856:	40 83       	st	Z, r20

  _written = false;
    1858:	18 8e       	std	Y+24, r1	; 0x18

  //set the data bits, parity, and stop bits
#if defined(__AVR_ATmega8__)
  config |= 0x80; // select UCSRC register (shared with UBRRH)
#endif
  *_ucsrc = config;
    185a:	ec 89       	ldd	r30, Y+20	; 0x14
    185c:	fd 89       	ldd	r31, Y+21	; 0x15
    185e:	10 83       	st	Z, r17
  
  sbi(*_ucsrb, RXEN0);
    1860:	ea 89       	ldd	r30, Y+18	; 0x12
    1862:	fb 89       	ldd	r31, Y+19	; 0x13
    1864:	80 81       	ld	r24, Z
    1866:	80 61       	ori	r24, 0x10	; 16
    1868:	80 83       	st	Z, r24
  sbi(*_ucsrb, TXEN0);
    186a:	ea 89       	ldd	r30, Y+18	; 0x12
    186c:	fb 89       	ldd	r31, Y+19	; 0x13
    186e:	80 81       	ld	r24, Z
    1870:	88 60       	ori	r24, 0x08	; 8
    1872:	80 83       	st	Z, r24
  sbi(*_ucsrb, RXCIE0);
    1874:	ea 89       	ldd	r30, Y+18	; 0x12
    1876:	fb 89       	ldd	r31, Y+19	; 0x13
    1878:	80 81       	ld	r24, Z
    187a:	80 68       	ori	r24, 0x80	; 128
    187c:	80 83       	st	Z, r24
  cbi(*_ucsrb, UDRIE0);
    187e:	ea 89       	ldd	r30, Y+18	; 0x12
    1880:	fb 89       	ldd	r31, Y+19	; 0x13
    1882:	80 81       	ld	r24, Z
    1884:	8f 7d       	andi	r24, 0xDF	; 223
    1886:	80 83       	st	Z, r24
}
    1888:	df 91       	pop	r29
    188a:	cf 91       	pop	r28
    188c:	1f 91       	pop	r17
    188e:	ff 90       	pop	r15
    1890:	ef 90       	pop	r14
    1892:	df 90       	pop	r13
    1894:	cf 90       	pop	r12
    1896:	08 95       	ret

00001898 <__vector_18>:
#elif defined(USART_RXC_vect)
  ISR(USART_RXC_vect) // ATmega8
#else
  #error "Don't know what the Data Received vector is called for Serial"
#endif
  {
    1898:	1f 92       	push	r1
    189a:	0f 92       	push	r0
    189c:	0f b6       	in	r0, 0x3f	; 63
    189e:	0f 92       	push	r0
    18a0:	11 24       	eor	r1, r1
    18a2:	2f 93       	push	r18
    18a4:	8f 93       	push	r24
    18a6:	9f 93       	push	r25
    18a8:	ef 93       	push	r30
    18aa:	ff 93       	push	r31

// Actual interrupt handlers //////////////////////////////////////////////////////////////

void HardwareSerial::_rx_complete_irq(void)
{
  if (bit_is_clear(*_ucsra, UPE0)) {
    18ac:	e0 91 a2 01 	lds	r30, 0x01A2	; 0x8001a2 <Serial+0x10>
    18b0:	f0 91 a3 01 	lds	r31, 0x01A3	; 0x8001a3 <Serial+0x11>
    18b4:	80 81       	ld	r24, Z
    18b6:	e0 91 a8 01 	lds	r30, 0x01A8	; 0x8001a8 <Serial+0x16>
    18ba:	f0 91 a9 01 	lds	r31, 0x01A9	; 0x8001a9 <Serial+0x17>
    18be:	82 fd       	sbrc	r24, 2
    18c0:	12 c0       	rjmp	.+36     	; 0x18e6 <__vector_18+0x4e>
    // No Parity error, read byte and store it in the buffer if there is
    // room
    unsigned char c = *_udr;
    18c2:	90 81       	ld	r25, Z
    rx_buffer_index_t i = (unsigned int)(_rx_buffer_head + 1) % SERIAL_RX_BUFFER_SIZE;
    18c4:	80 91 ab 01 	lds	r24, 0x01AB	; 0x8001ab <Serial+0x19>
    18c8:	8f 5f       	subi	r24, 0xFF	; 255
    18ca:	8f 73       	andi	r24, 0x3F	; 63

    // if we should be storing the received character into the location
    // just before the tail (meaning that the head would advance to the
    // current location of the tail), we're about to overflow the buffer
    // and so we don't write the character or advance the head.
    if (i != _rx_buffer_tail) {
    18cc:	20 91 ac 01 	lds	r18, 0x01AC	; 0x8001ac <Serial+0x1a>
    18d0:	82 17       	cp	r24, r18
    18d2:	51 f0       	breq	.+20     	; 0x18e8 <__vector_18+0x50>
      _rx_buffer[_rx_buffer_head] = c;
    18d4:	e0 91 ab 01 	lds	r30, 0x01AB	; 0x8001ab <Serial+0x19>
    18d8:	f0 e0       	ldi	r31, 0x00	; 0
    18da:	ee 56       	subi	r30, 0x6E	; 110
    18dc:	fe 4f       	sbci	r31, 0xFE	; 254
    18de:	95 8f       	std	Z+29, r25	; 0x1d
      _rx_buffer_head = i;
    18e0:	80 93 ab 01 	sts	0x01AB, r24	; 0x8001ab <Serial+0x19>
    18e4:	01 c0       	rjmp	.+2      	; 0x18e8 <__vector_18+0x50>
    }
  } else {
    // Parity error, read byte but discard it
    *_udr;
    18e6:	80 81       	ld	r24, Z
    Serial._rx_complete_irq();
  }
    18e8:	ff 91       	pop	r31
    18ea:	ef 91       	pop	r30
    18ec:	9f 91       	pop	r25
    18ee:	8f 91       	pop	r24
    18f0:	2f 91       	pop	r18
    18f2:	0f 90       	pop	r0
    18f4:	0f be       	out	0x3f, r0	; 63
    18f6:	0f 90       	pop	r0
    18f8:	1f 90       	pop	r1
    18fa:	18 95       	reti

000018fc <__vector_19>:
#elif defined(USART_UDRE_vect)
ISR(USART_UDRE_vect)
#else
  #error "Don't know what the Data Register Empty vector is called for Serial"
#endif
{
    18fc:	1f 92       	push	r1
    18fe:	0f 92       	push	r0
    1900:	0f b6       	in	r0, 0x3f	; 63
    1902:	0f 92       	push	r0
    1904:	11 24       	eor	r1, r1
    1906:	2f 93       	push	r18
    1908:	3f 93       	push	r19
    190a:	4f 93       	push	r20
    190c:	5f 93       	push	r21
    190e:	6f 93       	push	r22
    1910:	7f 93       	push	r23
    1912:	8f 93       	push	r24
    1914:	9f 93       	push	r25
    1916:	af 93       	push	r26
    1918:	bf 93       	push	r27
    191a:	ef 93       	push	r30
    191c:	ff 93       	push	r31
  Serial._tx_udr_empty_irq();
    191e:	82 e9       	ldi	r24, 0x92	; 146
    1920:	91 e0       	ldi	r25, 0x01	; 1
    1922:	0e 94 5d 0b 	call	0x16ba	; 0x16ba <_ZN14HardwareSerial17_tx_udr_empty_irqEv>
}
    1926:	ff 91       	pop	r31
    1928:	ef 91       	pop	r30
    192a:	bf 91       	pop	r27
    192c:	af 91       	pop	r26
    192e:	9f 91       	pop	r25
    1930:	8f 91       	pop	r24
    1932:	7f 91       	pop	r23
    1934:	6f 91       	pop	r22
    1936:	5f 91       	pop	r21
    1938:	4f 91       	pop	r20
    193a:	3f 91       	pop	r19
    193c:	2f 91       	pop	r18
    193e:	0f 90       	pop	r0
    1940:	0f be       	out	0x3f, r0	; 63
    1942:	0f 90       	pop	r0
    1944:	1f 90       	pop	r1
    1946:	18 95       	reti

00001948 <_Z17Serial0_availablev>:
#endif

// Function that can be weakly referenced by serialEventRun to prevent
// pulling in this file if it's not otherwise used.
bool Serial0_available() {
  return Serial.available();
    1948:	82 e9       	ldi	r24, 0x92	; 146
    194a:	91 e0       	ldi	r25, 0x01	; 1
    194c:	0e 94 21 0b 	call	0x1642	; 0x1642 <_ZN14HardwareSerial9availableEv>
    1950:	21 e0       	ldi	r18, 0x01	; 1
    1952:	89 2b       	or	r24, r25
    1954:	09 f4       	brne	.+2      	; 0x1958 <_Z17Serial0_availablev+0x10>
    1956:	20 e0       	ldi	r18, 0x00	; 0
}
    1958:	82 2f       	mov	r24, r18
    195a:	08 95       	ret

0000195c <_GLOBAL__sub_I___vector_18>:
    size_t printNumber(unsigned long, uint8_t);
    size_t printFloat(double, uint8_t);
  protected:
    void setWriteError(int err = 1) { write_error = err; }
  public:
    Print() : write_error(0) {}
    195c:	e2 e9       	ldi	r30, 0x92	; 146
    195e:	f1 e0       	ldi	r31, 0x01	; 1
    1960:	13 82       	std	Z+3, r1	; 0x03
    1962:	12 82       	std	Z+2, r1	; 0x02
    virtual int available() = 0;
    virtual int read() = 0;
    virtual int peek() = 0;
    virtual void flush() = 0;

    Stream() {_timeout=1000;}
    1964:	88 ee       	ldi	r24, 0xE8	; 232
    1966:	93 e0       	ldi	r25, 0x03	; 3
    1968:	a0 e0       	ldi	r26, 0x00	; 0
    196a:	b0 e0       	ldi	r27, 0x00	; 0
    196c:	84 83       	std	Z+4, r24	; 0x04
    196e:	95 83       	std	Z+5, r25	; 0x05
    1970:	a6 83       	std	Z+6, r26	; 0x06
    1972:	b7 83       	std	Z+7, r27	; 0x07
  volatile uint8_t *ucsrc, volatile uint8_t *udr) :
    _ubrrh(ubrrh), _ubrrl(ubrrl),
    _ucsra(ucsra), _ucsrb(ucsrb), _ucsrc(ucsrc),
    _udr(udr),
    _rx_buffer_head(0), _rx_buffer_tail(0),
    _tx_buffer_head(0), _tx_buffer_tail(0)
    1974:	8f e0       	ldi	r24, 0x0F	; 15
    1976:	91 e0       	ldi	r25, 0x01	; 1
    1978:	91 83       	std	Z+1, r25	; 0x01
    197a:	80 83       	st	Z, r24
    197c:	85 ec       	ldi	r24, 0xC5	; 197
    197e:	90 e0       	ldi	r25, 0x00	; 0
    1980:	95 87       	std	Z+13, r25	; 0x0d
    1982:	84 87       	std	Z+12, r24	; 0x0c
    1984:	84 ec       	ldi	r24, 0xC4	; 196
    1986:	90 e0       	ldi	r25, 0x00	; 0
    1988:	97 87       	std	Z+15, r25	; 0x0f
    198a:	86 87       	std	Z+14, r24	; 0x0e
    198c:	80 ec       	ldi	r24, 0xC0	; 192
    198e:	90 e0       	ldi	r25, 0x00	; 0
    1990:	91 8b       	std	Z+17, r25	; 0x11
    1992:	80 8b       	std	Z+16, r24	; 0x10
    1994:	81 ec       	ldi	r24, 0xC1	; 193
    1996:	90 e0       	ldi	r25, 0x00	; 0
    1998:	93 8b       	std	Z+19, r25	; 0x13
    199a:	82 8b       	std	Z+18, r24	; 0x12
    199c:	82 ec       	ldi	r24, 0xC2	; 194
    199e:	90 e0       	ldi	r25, 0x00	; 0
    19a0:	95 8b       	std	Z+21, r25	; 0x15
    19a2:	84 8b       	std	Z+20, r24	; 0x14
    19a4:	86 ec       	ldi	r24, 0xC6	; 198
    19a6:	90 e0       	ldi	r25, 0x00	; 0
    19a8:	97 8b       	std	Z+23, r25	; 0x17
    19aa:	86 8b       	std	Z+22, r24	; 0x16
    19ac:	11 8e       	std	Z+25, r1	; 0x19
    19ae:	12 8e       	std	Z+26, r1	; 0x1a
    19b0:	13 8e       	std	Z+27, r1	; 0x1b
    19b2:	14 8e       	std	Z+28, r1	; 0x1c
    19b4:	08 95       	ret

000019b6 <initVariant>:
// May be redefined by variant files.
void initVariant() __attribute__((weak));
void initVariant() { }

void setupUSB() __attribute__((weak));
void setupUSB() { }
    19b6:	08 95       	ret

000019b8 <main>:

int main(void)
{
	init();
    19b8:	0e 94 47 0e 	call	0x1c8e	; 0x1c8e <init>

	initVariant();
    19bc:	0e 94 db 0c 	call	0x19b6	; 0x19b6 <initVariant>

#if defined(USBCON)
	USBDevice.attach();
#endif
	
	setup();
    19c0:	0e 94 3a 01 	call	0x274	; 0x274 <setup>
    
	for (;;) {
		loop();
		if (serialEventRun) serialEventRun();
    19c4:	cf e4       	ldi	r28, 0x4F	; 79
    19c6:	db e0       	ldi	r29, 0x0B	; 11
#endif
	
	setup();
    
	for (;;) {
		loop();
    19c8:	0e 94 24 02 	call	0x448	; 0x448 <loop>
		if (serialEventRun) serialEventRun();
    19cc:	20 97       	sbiw	r28, 0x00	; 0
    19ce:	e1 f3       	breq	.-8      	; 0x19c8 <main+0x10>
    19d0:	0e 94 4f 0b 	call	0x169e	; 0x169e <_Z14serialEventRunv>
    19d4:	f9 cf       	rjmp	.-14     	; 0x19c8 <main+0x10>

000019d6 <_ZN5Print5writeEPKhj>:
  return n;
}

size_t Print::print(const Printable& x)
{
  return x.printTo(*this);
    19d6:	cf 92       	push	r12
    19d8:	df 92       	push	r13
    19da:	ef 92       	push	r14
    19dc:	ff 92       	push	r15
    19de:	0f 93       	push	r16
    19e0:	1f 93       	push	r17
    19e2:	cf 93       	push	r28
    19e4:	df 93       	push	r29
    19e6:	6c 01       	movw	r12, r24
    19e8:	7a 01       	movw	r14, r20
    19ea:	8b 01       	movw	r16, r22
    19ec:	c0 e0       	ldi	r28, 0x00	; 0
    19ee:	d0 e0       	ldi	r29, 0x00	; 0
    19f0:	ce 15       	cp	r28, r14
    19f2:	df 05       	cpc	r29, r15
    19f4:	89 f0       	breq	.+34     	; 0x1a18 <_ZN5Print5writeEPKhj+0x42>
    19f6:	d8 01       	movw	r26, r16
    19f8:	6d 91       	ld	r22, X+
    19fa:	8d 01       	movw	r16, r26
    19fc:	d6 01       	movw	r26, r12
    19fe:	ed 91       	ld	r30, X+
    1a00:	fc 91       	ld	r31, X
    1a02:	01 90       	ld	r0, Z+
    1a04:	f0 81       	ld	r31, Z
    1a06:	e0 2d       	mov	r30, r0
    1a08:	c6 01       	movw	r24, r12
    1a0a:	09 95       	icall
    1a0c:	89 2b       	or	r24, r25
    1a0e:	11 f4       	brne	.+4      	; 0x1a14 <_ZN5Print5writeEPKhj+0x3e>
    1a10:	7e 01       	movw	r14, r28
    1a12:	02 c0       	rjmp	.+4      	; 0x1a18 <_ZN5Print5writeEPKhj+0x42>
    1a14:	21 96       	adiw	r28, 0x01	; 1
    1a16:	ec cf       	rjmp	.-40     	; 0x19f0 <_ZN5Print5writeEPKhj+0x1a>
    1a18:	c7 01       	movw	r24, r14
    1a1a:	df 91       	pop	r29
    1a1c:	cf 91       	pop	r28
    1a1e:	1f 91       	pop	r17
    1a20:	0f 91       	pop	r16
    1a22:	ff 90       	pop	r15
    1a24:	ef 90       	pop	r14
    1a26:	df 90       	pop	r13
    1a28:	cf 90       	pop	r12
    1a2a:	08 95       	ret

00001a2c <_ZN5Print5writeEPKc>:
    1a2c:	61 15       	cp	r22, r1
    1a2e:	71 05       	cpc	r23, r1
    1a30:	79 f0       	breq	.+30     	; 0x1a50 <_ZN5Print5writeEPKc+0x24>
    1a32:	fb 01       	movw	r30, r22
    1a34:	01 90       	ld	r0, Z+
    1a36:	00 20       	and	r0, r0
    1a38:	e9 f7       	brne	.-6      	; 0x1a34 <_ZN5Print5writeEPKc+0x8>
    1a3a:	31 97       	sbiw	r30, 0x01	; 1
    1a3c:	af 01       	movw	r20, r30
    1a3e:	46 1b       	sub	r20, r22
    1a40:	57 0b       	sbc	r21, r23
    1a42:	dc 01       	movw	r26, r24
    1a44:	ed 91       	ld	r30, X+
    1a46:	fc 91       	ld	r31, X
    1a48:	02 80       	ldd	r0, Z+2	; 0x02
    1a4a:	f3 81       	ldd	r31, Z+3	; 0x03
    1a4c:	e0 2d       	mov	r30, r0
    1a4e:	09 94       	ijmp
    1a50:	80 e0       	ldi	r24, 0x00	; 0
    1a52:	90 e0       	ldi	r25, 0x00	; 0
    1a54:	08 95       	ret

00001a56 <_ZN5Print5printEPK19__FlashStringHelper>:
    1a56:	ef 92       	push	r14
    1a58:	ff 92       	push	r15
    1a5a:	0f 93       	push	r16
    1a5c:	1f 93       	push	r17
    1a5e:	cf 93       	push	r28
    1a60:	df 93       	push	r29
    1a62:	8c 01       	movw	r16, r24
    1a64:	7b 01       	movw	r14, r22
    1a66:	c0 e0       	ldi	r28, 0x00	; 0
    1a68:	d0 e0       	ldi	r29, 0x00	; 0
    1a6a:	f7 01       	movw	r30, r14
    1a6c:	ec 0f       	add	r30, r28
    1a6e:	fd 1f       	adc	r31, r29
    1a70:	64 91       	lpm	r22, Z
    1a72:	66 23       	and	r22, r22
    1a74:	61 f0       	breq	.+24     	; 0x1a8e <_ZN5Print5printEPK19__FlashStringHelper+0x38>
    1a76:	d8 01       	movw	r26, r16
    1a78:	ed 91       	ld	r30, X+
    1a7a:	fc 91       	ld	r31, X
    1a7c:	01 90       	ld	r0, Z+
    1a7e:	f0 81       	ld	r31, Z
    1a80:	e0 2d       	mov	r30, r0
    1a82:	c8 01       	movw	r24, r16
    1a84:	09 95       	icall
    1a86:	89 2b       	or	r24, r25
    1a88:	11 f0       	breq	.+4      	; 0x1a8e <_ZN5Print5printEPK19__FlashStringHelper+0x38>
    1a8a:	21 96       	adiw	r28, 0x01	; 1
    1a8c:	ee cf       	rjmp	.-36     	; 0x1a6a <_ZN5Print5printEPK19__FlashStringHelper+0x14>
    1a8e:	ce 01       	movw	r24, r28
    1a90:	df 91       	pop	r29
    1a92:	cf 91       	pop	r28
    1a94:	1f 91       	pop	r17
    1a96:	0f 91       	pop	r16
    1a98:	ff 90       	pop	r15
    1a9a:	ef 90       	pop	r14
    1a9c:	08 95       	ret

00001a9e <_ZN5Print5printERK6String>:
    1a9e:	dc 01       	movw	r26, r24
    1aa0:	ed 91       	ld	r30, X+
    1aa2:	fc 91       	ld	r31, X
    1aa4:	db 01       	movw	r26, r22
    1aa6:	14 96       	adiw	r26, 0x04	; 4
    1aa8:	4d 91       	ld	r20, X+
    1aaa:	5c 91       	ld	r21, X
    1aac:	15 97       	sbiw	r26, 0x05	; 5
    1aae:	6d 91       	ld	r22, X+
    1ab0:	7c 91       	ld	r23, X
    1ab2:	02 80       	ldd	r0, Z+2	; 0x02
    1ab4:	f3 81       	ldd	r31, Z+3	; 0x03
    1ab6:	e0 2d       	mov	r30, r0
    1ab8:	09 94       	ijmp

00001aba <_ZN5Print7printlnEv>:
}

size_t Print::println(void)
{
  return write("\r\n");
    1aba:	6b e1       	ldi	r22, 0x1B	; 27
    1abc:	71 e0       	ldi	r23, 0x01	; 1
    1abe:	0c 94 16 0d 	jmp	0x1a2c	; 0x1a2c <_ZN5Print5writeEPKc>

00001ac2 <_ZN5Print7printlnEPK19__FlashStringHelper>:
{
  return printFloat(n, digits);
}

size_t Print::println(const __FlashStringHelper *ifsh)
{
    1ac2:	0f 93       	push	r16
    1ac4:	1f 93       	push	r17
    1ac6:	cf 93       	push	r28
    1ac8:	df 93       	push	r29
    1aca:	ec 01       	movw	r28, r24
  size_t n = print(ifsh);
    1acc:	0e 94 2b 0d 	call	0x1a56	; 0x1a56 <_ZN5Print5printEPK19__FlashStringHelper>
    1ad0:	8c 01       	movw	r16, r24
  n += println();
    1ad2:	ce 01       	movw	r24, r28
    1ad4:	0e 94 5d 0d 	call	0x1aba	; 0x1aba <_ZN5Print7printlnEv>
  return n;
}
    1ad8:	80 0f       	add	r24, r16
    1ada:	91 1f       	adc	r25, r17
    1adc:	df 91       	pop	r29
    1ade:	cf 91       	pop	r28
    1ae0:	1f 91       	pop	r17
    1ae2:	0f 91       	pop	r16
    1ae4:	08 95       	ret

00001ae6 <_ZN5Print7printlnERK6String>:
{
  return write("\r\n");
}

size_t Print::println(const String &s)
{
    1ae6:	0f 93       	push	r16
    1ae8:	1f 93       	push	r17
    1aea:	cf 93       	push	r28
    1aec:	df 93       	push	r29
    1aee:	ec 01       	movw	r28, r24
  size_t n = print(s);
    1af0:	0e 94 4f 0d 	call	0x1a9e	; 0x1a9e <_ZN5Print5printERK6String>
    1af4:	8c 01       	movw	r16, r24
  n += println();
    1af6:	ce 01       	movw	r24, r28
    1af8:	0e 94 5d 0d 	call	0x1aba	; 0x1aba <_ZN5Print7printlnEv>
  return n;
}
    1afc:	80 0f       	add	r24, r16
    1afe:	91 1f       	adc	r25, r17
    1b00:	df 91       	pop	r29
    1b02:	cf 91       	pop	r28
    1b04:	1f 91       	pop	r17
    1b06:	0f 91       	pop	r16
    1b08:	08 95       	ret

00001b0a <__vector_16>:
#if defined(__AVR_ATtiny24__) || defined(__AVR_ATtiny44__) || defined(__AVR_ATtiny84__)
ISR(TIM0_OVF_vect)
#else
ISR(TIMER0_OVF_vect)
#endif
{
    1b0a:	1f 92       	push	r1
    1b0c:	0f 92       	push	r0
    1b0e:	0f b6       	in	r0, 0x3f	; 63
    1b10:	0f 92       	push	r0
    1b12:	11 24       	eor	r1, r1
    1b14:	2f 93       	push	r18
    1b16:	3f 93       	push	r19
    1b18:	8f 93       	push	r24
    1b1a:	9f 93       	push	r25
    1b1c:	af 93       	push	r26
    1b1e:	bf 93       	push	r27
	// copy these to local variables so they can be stored in registers
	// (volatile variables must be read from memory on every access)
	unsigned long m = timer0_millis;
    1b20:	80 91 30 02 	lds	r24, 0x0230	; 0x800230 <timer0_millis>
    1b24:	90 91 31 02 	lds	r25, 0x0231	; 0x800231 <timer0_millis+0x1>
    1b28:	a0 91 32 02 	lds	r26, 0x0232	; 0x800232 <timer0_millis+0x2>
    1b2c:	b0 91 33 02 	lds	r27, 0x0233	; 0x800233 <timer0_millis+0x3>
	unsigned char f = timer0_fract;
    1b30:	30 91 2f 02 	lds	r19, 0x022F	; 0x80022f <timer0_fract>

	m += MILLIS_INC;
	f += FRACT_INC;
    1b34:	23 e0       	ldi	r18, 0x03	; 3
    1b36:	23 0f       	add	r18, r19
	if (f >= FRACT_MAX) {
    1b38:	2d 37       	cpi	r18, 0x7D	; 125
    1b3a:	20 f4       	brcc	.+8      	; 0x1b44 <__vector_16+0x3a>
	// copy these to local variables so they can be stored in registers
	// (volatile variables must be read from memory on every access)
	unsigned long m = timer0_millis;
	unsigned char f = timer0_fract;

	m += MILLIS_INC;
    1b3c:	01 96       	adiw	r24, 0x01	; 1
    1b3e:	a1 1d       	adc	r26, r1
    1b40:	b1 1d       	adc	r27, r1
    1b42:	05 c0       	rjmp	.+10     	; 0x1b4e <__vector_16+0x44>
	f += FRACT_INC;
	if (f >= FRACT_MAX) {
		f -= FRACT_MAX;
    1b44:	26 e8       	ldi	r18, 0x86	; 134
    1b46:	23 0f       	add	r18, r19
		m += 1;
    1b48:	02 96       	adiw	r24, 0x02	; 2
    1b4a:	a1 1d       	adc	r26, r1
    1b4c:	b1 1d       	adc	r27, r1
	}

	timer0_fract = f;
    1b4e:	20 93 2f 02 	sts	0x022F, r18	; 0x80022f <timer0_fract>
	timer0_millis = m;
    1b52:	80 93 30 02 	sts	0x0230, r24	; 0x800230 <timer0_millis>
    1b56:	90 93 31 02 	sts	0x0231, r25	; 0x800231 <timer0_millis+0x1>
    1b5a:	a0 93 32 02 	sts	0x0232, r26	; 0x800232 <timer0_millis+0x2>
    1b5e:	b0 93 33 02 	sts	0x0233, r27	; 0x800233 <timer0_millis+0x3>
	timer0_overflow_count++;
    1b62:	80 91 34 02 	lds	r24, 0x0234	; 0x800234 <timer0_overflow_count>
    1b66:	90 91 35 02 	lds	r25, 0x0235	; 0x800235 <timer0_overflow_count+0x1>
    1b6a:	a0 91 36 02 	lds	r26, 0x0236	; 0x800236 <timer0_overflow_count+0x2>
    1b6e:	b0 91 37 02 	lds	r27, 0x0237	; 0x800237 <timer0_overflow_count+0x3>
    1b72:	01 96       	adiw	r24, 0x01	; 1
    1b74:	a1 1d       	adc	r26, r1
    1b76:	b1 1d       	adc	r27, r1
    1b78:	80 93 34 02 	sts	0x0234, r24	; 0x800234 <timer0_overflow_count>
    1b7c:	90 93 35 02 	sts	0x0235, r25	; 0x800235 <timer0_overflow_count+0x1>
    1b80:	a0 93 36 02 	sts	0x0236, r26	; 0x800236 <timer0_overflow_count+0x2>
    1b84:	b0 93 37 02 	sts	0x0237, r27	; 0x800237 <timer0_overflow_count+0x3>
}
    1b88:	bf 91       	pop	r27
    1b8a:	af 91       	pop	r26
    1b8c:	9f 91       	pop	r25
    1b8e:	8f 91       	pop	r24
    1b90:	3f 91       	pop	r19
    1b92:	2f 91       	pop	r18
    1b94:	0f 90       	pop	r0
    1b96:	0f be       	out	0x3f, r0	; 63
    1b98:	0f 90       	pop	r0
    1b9a:	1f 90       	pop	r1
    1b9c:	18 95       	reti

00001b9e <millis>:

unsigned long millis()
{
	unsigned long m;
	uint8_t oldSREG = SREG;
    1b9e:	2f b7       	in	r18, 0x3f	; 63

	// disable interrupts while we read timer0_millis or we might get an
	// inconsistent value (e.g. in the middle of a write to timer0_millis)
	cli();
    1ba0:	f8 94       	cli
	m = timer0_millis;
    1ba2:	60 91 30 02 	lds	r22, 0x0230	; 0x800230 <timer0_millis>
    1ba6:	70 91 31 02 	lds	r23, 0x0231	; 0x800231 <timer0_millis+0x1>
    1baa:	80 91 32 02 	lds	r24, 0x0232	; 0x800232 <timer0_millis+0x2>
    1bae:	90 91 33 02 	lds	r25, 0x0233	; 0x800233 <timer0_millis+0x3>
	SREG = oldSREG;
    1bb2:	2f bf       	out	0x3f, r18	; 63

	return m;
}
    1bb4:	08 95       	ret

00001bb6 <micros>:

unsigned long micros() {
	unsigned long m;
	uint8_t oldSREG = SREG, t;
    1bb6:	3f b7       	in	r19, 0x3f	; 63
	
	cli();
    1bb8:	f8 94       	cli
	m = timer0_overflow_count;
    1bba:	80 91 34 02 	lds	r24, 0x0234	; 0x800234 <timer0_overflow_count>
    1bbe:	90 91 35 02 	lds	r25, 0x0235	; 0x800235 <timer0_overflow_count+0x1>
    1bc2:	a0 91 36 02 	lds	r26, 0x0236	; 0x800236 <timer0_overflow_count+0x2>
    1bc6:	b0 91 37 02 	lds	r27, 0x0237	; 0x800237 <timer0_overflow_count+0x3>
#if defined(TCNT0)
	t = TCNT0;
    1bca:	26 b5       	in	r18, 0x26	; 38
#else
	#error TIMER 0 not defined
#endif

#ifdef TIFR0
	if ((TIFR0 & _BV(TOV0)) && (t < 255))
    1bcc:	a8 9b       	sbis	0x15, 0	; 21
    1bce:	05 c0       	rjmp	.+10     	; 0x1bda <micros+0x24>
    1bd0:	2f 3f       	cpi	r18, 0xFF	; 255
    1bd2:	19 f0       	breq	.+6      	; 0x1bda <micros+0x24>
		m++;
    1bd4:	01 96       	adiw	r24, 0x01	; 1
    1bd6:	a1 1d       	adc	r26, r1
    1bd8:	b1 1d       	adc	r27, r1
#else
	if ((TIFR & _BV(TOV0)) && (t < 255))
		m++;
#endif

	SREG = oldSREG;
    1bda:	3f bf       	out	0x3f, r19	; 63
	
	return ((m << 8) + t) * (64 / clockCyclesPerMicrosecond());
    1bdc:	ba 2f       	mov	r27, r26
    1bde:	a9 2f       	mov	r26, r25
    1be0:	98 2f       	mov	r25, r24
    1be2:	88 27       	eor	r24, r24
    1be4:	82 0f       	add	r24, r18
    1be6:	91 1d       	adc	r25, r1
    1be8:	a1 1d       	adc	r26, r1
    1bea:	b1 1d       	adc	r27, r1
    1bec:	bc 01       	movw	r22, r24
    1bee:	cd 01       	movw	r24, r26
    1bf0:	42 e0       	ldi	r20, 0x02	; 2
    1bf2:	66 0f       	add	r22, r22
    1bf4:	77 1f       	adc	r23, r23
    1bf6:	88 1f       	adc	r24, r24
    1bf8:	99 1f       	adc	r25, r25
    1bfa:	4a 95       	dec	r20
    1bfc:	d1 f7       	brne	.-12     	; 0x1bf2 <micros+0x3c>
}
    1bfe:	08 95       	ret

00001c00 <delay>:

void delay(unsigned long ms)
{
    1c00:	8f 92       	push	r8
    1c02:	9f 92       	push	r9
    1c04:	af 92       	push	r10
    1c06:	bf 92       	push	r11
    1c08:	cf 92       	push	r12
    1c0a:	df 92       	push	r13
    1c0c:	ef 92       	push	r14
    1c0e:	ff 92       	push	r15
    1c10:	6b 01       	movw	r12, r22
    1c12:	7c 01       	movw	r14, r24
	uint32_t start = micros();
    1c14:	0e 94 db 0d 	call	0x1bb6	; 0x1bb6 <micros>
    1c18:	4b 01       	movw	r8, r22
    1c1a:	5c 01       	movw	r10, r24

	while (ms > 0) {
    1c1c:	c1 14       	cp	r12, r1
    1c1e:	d1 04       	cpc	r13, r1
    1c20:	e1 04       	cpc	r14, r1
    1c22:	f1 04       	cpc	r15, r1
    1c24:	01 f1       	breq	.+64     	; 0x1c66 <delay+0x66>
		yield();
    1c26:	0e 94 b3 11 	call	0x2366	; 0x2366 <yield>
		while ( ms > 0 && (micros() - start) >= 1000) {
    1c2a:	0e 94 db 0d 	call	0x1bb6	; 0x1bb6 <micros>
    1c2e:	dc 01       	movw	r26, r24
    1c30:	cb 01       	movw	r24, r22
    1c32:	88 19       	sub	r24, r8
    1c34:	99 09       	sbc	r25, r9
    1c36:	aa 09       	sbc	r26, r10
    1c38:	bb 09       	sbc	r27, r11
    1c3a:	88 3e       	cpi	r24, 0xE8	; 232
    1c3c:	93 40       	sbci	r25, 0x03	; 3
    1c3e:	a1 05       	cpc	r26, r1
    1c40:	b1 05       	cpc	r27, r1
    1c42:	60 f3       	brcs	.-40     	; 0x1c1c <delay+0x1c>
			ms--;
    1c44:	21 e0       	ldi	r18, 0x01	; 1
    1c46:	c2 1a       	sub	r12, r18
    1c48:	d1 08       	sbc	r13, r1
    1c4a:	e1 08       	sbc	r14, r1
    1c4c:	f1 08       	sbc	r15, r1
			start += 1000;
    1c4e:	88 ee       	ldi	r24, 0xE8	; 232
    1c50:	88 0e       	add	r8, r24
    1c52:	83 e0       	ldi	r24, 0x03	; 3
    1c54:	98 1e       	adc	r9, r24
    1c56:	a1 1c       	adc	r10, r1
    1c58:	b1 1c       	adc	r11, r1
{
	uint32_t start = micros();

	while (ms > 0) {
		yield();
		while ( ms > 0 && (micros() - start) >= 1000) {
    1c5a:	c1 14       	cp	r12, r1
    1c5c:	d1 04       	cpc	r13, r1
    1c5e:	e1 04       	cpc	r14, r1
    1c60:	f1 04       	cpc	r15, r1
    1c62:	19 f7       	brne	.-58     	; 0x1c2a <delay+0x2a>
    1c64:	db cf       	rjmp	.-74     	; 0x1c1c <delay+0x1c>
			ms--;
			start += 1000;
		}
	}
}
    1c66:	ff 90       	pop	r15
    1c68:	ef 90       	pop	r14
    1c6a:	df 90       	pop	r13
    1c6c:	cf 90       	pop	r12
    1c6e:	bf 90       	pop	r11
    1c70:	af 90       	pop	r10
    1c72:	9f 90       	pop	r9
    1c74:	8f 90       	pop	r8
    1c76:	08 95       	ret

00001c78 <delayMicroseconds>:
#elif F_CPU >= 16000000L
	// for the 16 MHz clock on most Arduino boards

	// for a one-microsecond delay, simply return.  the overhead
	// of the function call takes 14 (16) cycles, which is 1us
	if (us <= 1) return; //  = 3 cycles, (4 when true)
    1c78:	82 30       	cpi	r24, 0x02	; 2
    1c7a:	91 05       	cpc	r25, r1
    1c7c:	38 f0       	brcs	.+14     	; 0x1c8c <delayMicroseconds+0x14>

	// the following loop takes 1/4 of a microsecond (4 cycles)
	// per iteration, so execute it four times for each microsecond of
	// delay requested.
	us <<= 2; // x4 us, = 4 cycles
    1c7e:	88 0f       	add	r24, r24
    1c80:	99 1f       	adc	r25, r25
    1c82:	88 0f       	add	r24, r24
    1c84:	99 1f       	adc	r25, r25

	// account for the time taken in the preceeding commands.
	// we just burned 19 (21) cycles above, remove 5, (5*4=20)
	// us is at least 8 so we can substract 5
	us -= 5; // = 2 cycles,
    1c86:	05 97       	sbiw	r24, 0x05	; 5
	

#endif

	// busy wait
	__asm__ __volatile__ (
    1c88:	01 97       	sbiw	r24, 0x01	; 1
    1c8a:	f1 f7       	brne	.-4      	; 0x1c88 <delayMicroseconds+0x10>
    1c8c:	08 95       	ret

00001c8e <init>:

void init()
{
	// this needs to be called before setup() or some functions won't
	// work there
	sei();
    1c8e:	78 94       	sei
	
	// on the ATmega168, timer 0 is also used for fast hardware pwm
	// (using phase-correct PWM would mean that timer 0 overflowed half as often
	// resulting in different millis() behavior on the ATmega8 and ATmega168)
#if defined(TCCR0A) && defined(WGM01)
	sbi(TCCR0A, WGM01);
    1c90:	84 b5       	in	r24, 0x24	; 36
    1c92:	82 60       	ori	r24, 0x02	; 2
    1c94:	84 bd       	out	0x24, r24	; 36
	sbi(TCCR0A, WGM00);
    1c96:	84 b5       	in	r24, 0x24	; 36
    1c98:	81 60       	ori	r24, 0x01	; 1
    1c9a:	84 bd       	out	0x24, r24	; 36
	// this combination is for the standard atmega8
	sbi(TCCR0, CS01);
	sbi(TCCR0, CS00);
#elif defined(TCCR0B) && defined(CS01) && defined(CS00)
	// this combination is for the standard 168/328/1280/2560
	sbi(TCCR0B, CS01);
    1c9c:	85 b5       	in	r24, 0x25	; 37
    1c9e:	82 60       	ori	r24, 0x02	; 2
    1ca0:	85 bd       	out	0x25, r24	; 37
	sbi(TCCR0B, CS00);
    1ca2:	85 b5       	in	r24, 0x25	; 37
    1ca4:	81 60       	ori	r24, 0x01	; 1
    1ca6:	85 bd       	out	0x25, r24	; 37

	// enable timer 0 overflow interrupt
#if defined(TIMSK) && defined(TOIE0)
	sbi(TIMSK, TOIE0);
#elif defined(TIMSK0) && defined(TOIE0)
	sbi(TIMSK0, TOIE0);
    1ca8:	ee e6       	ldi	r30, 0x6E	; 110
    1caa:	f0 e0       	ldi	r31, 0x00	; 0
    1cac:	80 81       	ld	r24, Z
    1cae:	81 60       	ori	r24, 0x01	; 1
    1cb0:	80 83       	st	Z, r24
	// this is better for motors as it ensures an even waveform
	// note, however, that fast pwm mode can achieve a frequency of up
	// 8 MHz (with a 16 MHz clock) at 50% duty cycle

#if defined(TCCR1B) && defined(CS11) && defined(CS10)
	TCCR1B = 0;
    1cb2:	e1 e8       	ldi	r30, 0x81	; 129
    1cb4:	f0 e0       	ldi	r31, 0x00	; 0
    1cb6:	10 82       	st	Z, r1

	// set timer 1 prescale factor to 64
	sbi(TCCR1B, CS11);
    1cb8:	80 81       	ld	r24, Z
    1cba:	82 60       	ori	r24, 0x02	; 2
    1cbc:	80 83       	st	Z, r24
#if F_CPU >= 8000000L
	sbi(TCCR1B, CS10);
    1cbe:	80 81       	ld	r24, Z
    1cc0:	81 60       	ori	r24, 0x01	; 1
    1cc2:	80 83       	st	Z, r24
	sbi(TCCR1, CS10);
#endif
#endif
	// put timer 1 in 8-bit phase correct pwm mode
#if defined(TCCR1A) && defined(WGM10)
	sbi(TCCR1A, WGM10);
    1cc4:	e0 e8       	ldi	r30, 0x80	; 128
    1cc6:	f0 e0       	ldi	r31, 0x00	; 0
    1cc8:	80 81       	ld	r24, Z
    1cca:	81 60       	ori	r24, 0x01	; 1
    1ccc:	80 83       	st	Z, r24

	// set timer 2 prescale factor to 64
#if defined(TCCR2) && defined(CS22)
	sbi(TCCR2, CS22);
#elif defined(TCCR2B) && defined(CS22)
	sbi(TCCR2B, CS22);
    1cce:	e1 eb       	ldi	r30, 0xB1	; 177
    1cd0:	f0 e0       	ldi	r31, 0x00	; 0
    1cd2:	80 81       	ld	r24, Z
    1cd4:	84 60       	ori	r24, 0x04	; 4
    1cd6:	80 83       	st	Z, r24

	// configure timer 2 for phase correct pwm (8-bit)
#if defined(TCCR2) && defined(WGM20)
	sbi(TCCR2, WGM20);
#elif defined(TCCR2A) && defined(WGM20)
	sbi(TCCR2A, WGM20);
    1cd8:	e0 eb       	ldi	r30, 0xB0	; 176
    1cda:	f0 e0       	ldi	r31, 0x00	; 0
    1cdc:	80 81       	ld	r24, Z
    1cde:	81 60       	ori	r24, 0x01	; 1
    1ce0:	80 83       	st	Z, r24
#endif

#if defined(ADCSRA)
	// set a2d prescaler so we are inside the desired 50-200 KHz range.
	#if F_CPU >= 16000000 // 16 MHz / 128 = 125 KHz
		sbi(ADCSRA, ADPS2);
    1ce2:	ea e7       	ldi	r30, 0x7A	; 122
    1ce4:	f0 e0       	ldi	r31, 0x00	; 0
    1ce6:	80 81       	ld	r24, Z
    1ce8:	84 60       	ori	r24, 0x04	; 4
    1cea:	80 83       	st	Z, r24
		sbi(ADCSRA, ADPS1);
    1cec:	80 81       	ld	r24, Z
    1cee:	82 60       	ori	r24, 0x02	; 2
    1cf0:	80 83       	st	Z, r24
		sbi(ADCSRA, ADPS0);
    1cf2:	80 81       	ld	r24, Z
    1cf4:	81 60       	ori	r24, 0x01	; 1
    1cf6:	80 83       	st	Z, r24
		cbi(ADCSRA, ADPS2);
		cbi(ADCSRA, ADPS1);
		sbi(ADCSRA, ADPS0);
	#endif
	// enable a2d conversions
	sbi(ADCSRA, ADEN);
    1cf8:	80 81       	ld	r24, Z
    1cfa:	80 68       	ori	r24, 0x80	; 128
    1cfc:	80 83       	st	Z, r24
	// here so they can be used as normal digital i/o; they will be
	// reconnected in Serial.begin()
#if defined(UCSRB)
	UCSRB = 0;
#elif defined(UCSR0B)
	UCSR0B = 0;
    1cfe:	10 92 c1 00 	sts	0x00C1, r1	; 0x8000c1 <__TEXT_REGION_LENGTH__+0x7e00c1>
    1d02:	08 95       	ret

00001d04 <analogWrite>:
// Right now, PWM output only works on the pins with
// hardware support.  These are defined in the appropriate
// pins_*.c file.  For the rest of the pins, we default
// to digital output.
void analogWrite(uint8_t pin, int val)
{
    1d04:	1f 93       	push	r17
    1d06:	cf 93       	push	r28
    1d08:	df 93       	push	r29
    1d0a:	18 2f       	mov	r17, r24
    1d0c:	eb 01       	movw	r28, r22
	// We need to make sure the PWM output is enabled for those pins
	// that support it, as we turn it off when digitally reading or
	// writing with them.  Also, make sure the pin is in output mode
	// for consistenty with Wiring, which doesn't require a pinMode
	// call for the analog output pins.
	pinMode(pin, OUTPUT);
    1d0e:	61 e0       	ldi	r22, 0x01	; 1
    1d10:	0e 94 0a 0f 	call	0x1e14	; 0x1e14 <pinMode>
	if (val == 0)
    1d14:	20 97       	sbiw	r28, 0x00	; 0
    1d16:	11 f4       	brne	.+4      	; 0x1d1c <analogWrite+0x18>
	{
		digitalWrite(pin, LOW);
    1d18:	60 e0       	ldi	r22, 0x00	; 0
    1d1a:	04 c0       	rjmp	.+8      	; 0x1d24 <analogWrite+0x20>
	}
	else if (val == 255)
    1d1c:	cf 3f       	cpi	r28, 0xFF	; 255
    1d1e:	d1 05       	cpc	r29, r1
    1d20:	39 f4       	brne	.+14     	; 0x1d30 <analogWrite+0x2c>
	{
		digitalWrite(pin, HIGH);
    1d22:	61 e0       	ldi	r22, 0x01	; 1
    1d24:	81 2f       	mov	r24, r17
				} else {
					digitalWrite(pin, HIGH);
				}
		}
	}
}
    1d26:	df 91       	pop	r29
    1d28:	cf 91       	pop	r28
    1d2a:	1f 91       	pop	r17
	{
		digitalWrite(pin, LOW);
	}
	else if (val == 255)
	{
		digitalWrite(pin, HIGH);
    1d2c:	0c 94 46 0f 	jmp	0x1e8c	; 0x1e8c <digitalWrite>
	}
	else
	{
		switch(digitalPinToTimer(pin))
    1d30:	e1 2f       	mov	r30, r17
    1d32:	f0 e0       	ldi	r31, 0x00	; 0
    1d34:	e0 50       	subi	r30, 0x00	; 0
    1d36:	ff 4f       	sbci	r31, 0xFF	; 255
    1d38:	e4 91       	lpm	r30, Z
    1d3a:	e3 30       	cpi	r30, 0x03	; 3
    1d3c:	f9 f0       	breq	.+62     	; 0x1d7c <analogWrite+0x78>
    1d3e:	48 f4       	brcc	.+18     	; 0x1d52 <analogWrite+0x4e>
    1d40:	e1 30       	cpi	r30, 0x01	; 1
    1d42:	b9 f0       	breq	.+46     	; 0x1d72 <analogWrite+0x6e>
    1d44:	e2 30       	cpi	r30, 0x02	; 2
    1d46:	a1 f5       	brne	.+104    	; 0x1db0 <analogWrite+0xac>
			#endif

			#if defined(TCCR0A) && defined(COM0B1)
			case TIMER0B:
				// connect pwm to pin on timer 0, channel B
				sbi(TCCR0A, COM0B1);
    1d48:	84 b5       	in	r24, 0x24	; 36
    1d4a:	80 62       	ori	r24, 0x20	; 32
    1d4c:	84 bd       	out	0x24, r24	; 36
				OCR0B = val; // set pwm duty
    1d4e:	c8 bd       	out	0x28, r28	; 40
				break;
    1d50:	34 c0       	rjmp	.+104    	; 0x1dba <analogWrite+0xb6>
	{
		digitalWrite(pin, HIGH);
	}
	else
	{
		switch(digitalPinToTimer(pin))
    1d52:	e7 30       	cpi	r30, 0x07	; 7
    1d54:	e9 f0       	breq	.+58     	; 0x1d90 <analogWrite+0x8c>
    1d56:	e8 30       	cpi	r30, 0x08	; 8
    1d58:	19 f1       	breq	.+70     	; 0x1da0 <analogWrite+0x9c>
    1d5a:	e4 30       	cpi	r30, 0x04	; 4
    1d5c:	49 f5       	brne	.+82     	; 0x1db0 <analogWrite+0xac>
			#endif

			#if defined(TCCR1A) && defined(COM1B1)
			case TIMER1B:
				// connect pwm to pin on timer 1, channel B
				sbi(TCCR1A, COM1B1);
    1d5e:	80 91 80 00 	lds	r24, 0x0080	; 0x800080 <__TEXT_REGION_LENGTH__+0x7e0080>
    1d62:	80 62       	ori	r24, 0x20	; 32
    1d64:	80 93 80 00 	sts	0x0080, r24	; 0x800080 <__TEXT_REGION_LENGTH__+0x7e0080>
				OCR1B = val; // set pwm duty
    1d68:	d0 93 8b 00 	sts	0x008B, r29	; 0x80008b <__TEXT_REGION_LENGTH__+0x7e008b>
    1d6c:	c0 93 8a 00 	sts	0x008A, r28	; 0x80008a <__TEXT_REGION_LENGTH__+0x7e008a>
				break;
    1d70:	24 c0       	rjmp	.+72     	; 0x1dba <analogWrite+0xb6>
			#endif

			#if defined(TCCR0A) && defined(COM0A1)
			case TIMER0A:
				// connect pwm to pin on timer 0, channel A
				sbi(TCCR0A, COM0A1);
    1d72:	84 b5       	in	r24, 0x24	; 36
    1d74:	80 68       	ori	r24, 0x80	; 128
    1d76:	84 bd       	out	0x24, r24	; 36
				OCR0A = val; // set pwm duty
    1d78:	c7 bd       	out	0x27, r28	; 39
				break;
    1d7a:	1f c0       	rjmp	.+62     	; 0x1dba <analogWrite+0xb6>
			#endif

			#if defined(TCCR1A) && defined(COM1A1)
			case TIMER1A:
				// connect pwm to pin on timer 1, channel A
				sbi(TCCR1A, COM1A1);
    1d7c:	80 91 80 00 	lds	r24, 0x0080	; 0x800080 <__TEXT_REGION_LENGTH__+0x7e0080>
    1d80:	80 68       	ori	r24, 0x80	; 128
    1d82:	80 93 80 00 	sts	0x0080, r24	; 0x800080 <__TEXT_REGION_LENGTH__+0x7e0080>
				OCR1A = val; // set pwm duty
    1d86:	d0 93 89 00 	sts	0x0089, r29	; 0x800089 <__TEXT_REGION_LENGTH__+0x7e0089>
    1d8a:	c0 93 88 00 	sts	0x0088, r28	; 0x800088 <__TEXT_REGION_LENGTH__+0x7e0088>
				break;
    1d8e:	15 c0       	rjmp	.+42     	; 0x1dba <analogWrite+0xb6>
			#endif

			#if defined(TCCR2A) && defined(COM2A1)
			case TIMER2A:
				// connect pwm to pin on timer 2, channel A
				sbi(TCCR2A, COM2A1);
    1d90:	80 91 b0 00 	lds	r24, 0x00B0	; 0x8000b0 <__TEXT_REGION_LENGTH__+0x7e00b0>
    1d94:	80 68       	ori	r24, 0x80	; 128
    1d96:	80 93 b0 00 	sts	0x00B0, r24	; 0x8000b0 <__TEXT_REGION_LENGTH__+0x7e00b0>
				OCR2A = val; // set pwm duty
    1d9a:	c0 93 b3 00 	sts	0x00B3, r28	; 0x8000b3 <__TEXT_REGION_LENGTH__+0x7e00b3>
				break;
    1d9e:	0d c0       	rjmp	.+26     	; 0x1dba <analogWrite+0xb6>
			#endif

			#if defined(TCCR2A) && defined(COM2B1)
			case TIMER2B:
				// connect pwm to pin on timer 2, channel B
				sbi(TCCR2A, COM2B1);
    1da0:	80 91 b0 00 	lds	r24, 0x00B0	; 0x8000b0 <__TEXT_REGION_LENGTH__+0x7e00b0>
    1da4:	80 62       	ori	r24, 0x20	; 32
    1da6:	80 93 b0 00 	sts	0x00B0, r24	; 0x8000b0 <__TEXT_REGION_LENGTH__+0x7e00b0>
				OCR2B = val; // set pwm duty
    1daa:	c0 93 b4 00 	sts	0x00B4, r28	; 0x8000b4 <__TEXT_REGION_LENGTH__+0x7e00b4>
				break;
    1dae:	05 c0       	rjmp	.+10     	; 0x1dba <analogWrite+0xb6>
				break;
			#endif

			case NOT_ON_TIMER:
			default:
				if (val < 128) {
    1db0:	c0 38       	cpi	r28, 0x80	; 128
    1db2:	d1 05       	cpc	r29, r1
    1db4:	0c f0       	brlt	.+2      	; 0x1db8 <analogWrite+0xb4>
    1db6:	b5 cf       	rjmp	.-150    	; 0x1d22 <analogWrite+0x1e>
    1db8:	af cf       	rjmp	.-162    	; 0x1d18 <analogWrite+0x14>
				} else {
					digitalWrite(pin, HIGH);
				}
		}
	}
}
    1dba:	df 91       	pop	r29
    1dbc:	cf 91       	pop	r28
    1dbe:	1f 91       	pop	r17
    1dc0:	08 95       	ret

00001dc2 <turnOffPWM>:
//
//static inline void turnOffPWM(uint8_t timer) __attribute__ ((always_inline));
//static inline void turnOffPWM(uint8_t timer)
static void turnOffPWM(uint8_t timer)
{
	switch (timer)
    1dc2:	83 30       	cpi	r24, 0x03	; 3
    1dc4:	81 f0       	breq	.+32     	; 0x1de6 <turnOffPWM+0x24>
    1dc6:	28 f4       	brcc	.+10     	; 0x1dd2 <turnOffPWM+0x10>
    1dc8:	81 30       	cpi	r24, 0x01	; 1
    1dca:	99 f0       	breq	.+38     	; 0x1df2 <turnOffPWM+0x30>
    1dcc:	82 30       	cpi	r24, 0x02	; 2
    1dce:	a1 f0       	breq	.+40     	; 0x1df8 <turnOffPWM+0x36>
    1dd0:	08 95       	ret
    1dd2:	87 30       	cpi	r24, 0x07	; 7
    1dd4:	a9 f0       	breq	.+42     	; 0x1e00 <turnOffPWM+0x3e>
    1dd6:	88 30       	cpi	r24, 0x08	; 8
    1dd8:	b9 f0       	breq	.+46     	; 0x1e08 <turnOffPWM+0x46>
    1dda:	84 30       	cpi	r24, 0x04	; 4
    1ddc:	d1 f4       	brne	.+52     	; 0x1e12 <turnOffPWM+0x50>
	{
		#if defined(TCCR1A) && defined(COM1A1)
		case TIMER1A:   cbi(TCCR1A, COM1A1);    break;
		#endif
		#if defined(TCCR1A) && defined(COM1B1)
		case TIMER1B:   cbi(TCCR1A, COM1B1);    break;
    1dde:	80 91 80 00 	lds	r24, 0x0080	; 0x800080 <__TEXT_REGION_LENGTH__+0x7e0080>
    1de2:	8f 7d       	andi	r24, 0xDF	; 223
    1de4:	03 c0       	rjmp	.+6      	; 0x1dec <turnOffPWM+0x2a>
static void turnOffPWM(uint8_t timer)
{
	switch (timer)
	{
		#if defined(TCCR1A) && defined(COM1A1)
		case TIMER1A:   cbi(TCCR1A, COM1A1);    break;
    1de6:	80 91 80 00 	lds	r24, 0x0080	; 0x800080 <__TEXT_REGION_LENGTH__+0x7e0080>
    1dea:	8f 77       	andi	r24, 0x7F	; 127
		#endif
		#if defined(TCCR1A) && defined(COM1B1)
		case TIMER1B:   cbi(TCCR1A, COM1B1);    break;
    1dec:	80 93 80 00 	sts	0x0080, r24	; 0x800080 <__TEXT_REGION_LENGTH__+0x7e0080>
    1df0:	08 95       	ret
		#if defined(TCCR2) && defined(COM21)
		case  TIMER2:   cbi(TCCR2, COM21);      break;
		#endif
		
		#if defined(TCCR0A) && defined(COM0A1)
		case  TIMER0A:  cbi(TCCR0A, COM0A1);    break;
    1df2:	84 b5       	in	r24, 0x24	; 36
    1df4:	8f 77       	andi	r24, 0x7F	; 127
    1df6:	02 c0       	rjmp	.+4      	; 0x1dfc <turnOffPWM+0x3a>
		#endif
		
		#if defined(TCCR0A) && defined(COM0B1)
		case  TIMER0B:  cbi(TCCR0A, COM0B1);    break;
    1df8:	84 b5       	in	r24, 0x24	; 36
    1dfa:	8f 7d       	andi	r24, 0xDF	; 223
    1dfc:	84 bd       	out	0x24, r24	; 36
    1dfe:	08 95       	ret
		#endif
		#if defined(TCCR2A) && defined(COM2A1)
		case  TIMER2A:  cbi(TCCR2A, COM2A1);    break;
    1e00:	80 91 b0 00 	lds	r24, 0x00B0	; 0x8000b0 <__TEXT_REGION_LENGTH__+0x7e00b0>
    1e04:	8f 77       	andi	r24, 0x7F	; 127
    1e06:	03 c0       	rjmp	.+6      	; 0x1e0e <turnOffPWM+0x4c>
		#endif
		#if defined(TCCR2A) && defined(COM2B1)
		case  TIMER2B:  cbi(TCCR2A, COM2B1);    break;
    1e08:	80 91 b0 00 	lds	r24, 0x00B0	; 0x8000b0 <__TEXT_REGION_LENGTH__+0x7e00b0>
    1e0c:	8f 7d       	andi	r24, 0xDF	; 223
    1e0e:	80 93 b0 00 	sts	0x00B0, r24	; 0x8000b0 <__TEXT_REGION_LENGTH__+0x7e00b0>
    1e12:	08 95       	ret

00001e14 <pinMode>:
#define ARDUINO_MAIN
#include "wiring_private.h"
#include "pins_arduino.h"

void pinMode(uint8_t pin, uint8_t mode)
{
    1e14:	cf 93       	push	r28
    1e16:	df 93       	push	r29
	uint8_t bit = digitalPinToBitMask(pin);
    1e18:	90 e0       	ldi	r25, 0x00	; 0
    1e1a:	fc 01       	movw	r30, r24
    1e1c:	ec 5e       	subi	r30, 0xEC	; 236
    1e1e:	fe 4f       	sbci	r31, 0xFE	; 254
    1e20:	24 91       	lpm	r18, Z
	uint8_t port = digitalPinToPort(pin);
    1e22:	fc 01       	movw	r30, r24
    1e24:	e8 5d       	subi	r30, 0xD8	; 216
    1e26:	fe 4f       	sbci	r31, 0xFE	; 254
    1e28:	84 91       	lpm	r24, Z
	volatile uint8_t *reg, *out;

	if (port == NOT_A_PIN) return;
    1e2a:	88 23       	and	r24, r24
    1e2c:	61 f1       	breq	.+88     	; 0x1e86 <pinMode+0x72>

	// JWS: can I let the optimizer do this?
	reg = portModeRegister(port);
    1e2e:	90 e0       	ldi	r25, 0x00	; 0
    1e30:	88 0f       	add	r24, r24
    1e32:	99 1f       	adc	r25, r25
    1e34:	fc 01       	movw	r30, r24
    1e36:	e0 5b       	subi	r30, 0xB0	; 176
    1e38:	fe 4f       	sbci	r31, 0xFE	; 254
    1e3a:	c5 91       	lpm	r28, Z+
    1e3c:	d4 91       	lpm	r29, Z
	out = portOutputRegister(port);
    1e3e:	fc 01       	movw	r30, r24
    1e40:	ea 5b       	subi	r30, 0xBA	; 186
    1e42:	fe 4f       	sbci	r31, 0xFE	; 254
    1e44:	a5 91       	lpm	r26, Z+
    1e46:	b4 91       	lpm	r27, Z

	if (mode == INPUT) { 
    1e48:	61 11       	cpse	r22, r1
    1e4a:	09 c0       	rjmp	.+18     	; 0x1e5e <pinMode+0x4a>
		uint8_t oldSREG = SREG;
    1e4c:	9f b7       	in	r25, 0x3f	; 63
                cli();
    1e4e:	f8 94       	cli
		*reg &= ~bit;
    1e50:	88 81       	ld	r24, Y
    1e52:	20 95       	com	r18
    1e54:	82 23       	and	r24, r18
    1e56:	88 83       	st	Y, r24
		*out &= ~bit;
    1e58:	ec 91       	ld	r30, X
    1e5a:	2e 23       	and	r18, r30
    1e5c:	0b c0       	rjmp	.+22     	; 0x1e74 <pinMode+0x60>
		SREG = oldSREG;
	} else if (mode == INPUT_PULLUP) {
    1e5e:	62 30       	cpi	r22, 0x02	; 2
    1e60:	61 f4       	brne	.+24     	; 0x1e7a <pinMode+0x66>
		uint8_t oldSREG = SREG;
    1e62:	9f b7       	in	r25, 0x3f	; 63
                cli();
    1e64:	f8 94       	cli
		*reg &= ~bit;
    1e66:	38 81       	ld	r19, Y
    1e68:	82 2f       	mov	r24, r18
    1e6a:	80 95       	com	r24
    1e6c:	83 23       	and	r24, r19
    1e6e:	88 83       	st	Y, r24
		*out |= bit;
    1e70:	ec 91       	ld	r30, X
    1e72:	2e 2b       	or	r18, r30
    1e74:	2c 93       	st	X, r18
		SREG = oldSREG;
    1e76:	9f bf       	out	0x3f, r25	; 63
    1e78:	06 c0       	rjmp	.+12     	; 0x1e86 <pinMode+0x72>
	} else {
		uint8_t oldSREG = SREG;
    1e7a:	8f b7       	in	r24, 0x3f	; 63
                cli();
    1e7c:	f8 94       	cli
		*reg |= bit;
    1e7e:	e8 81       	ld	r30, Y
    1e80:	2e 2b       	or	r18, r30
    1e82:	28 83       	st	Y, r18
		SREG = oldSREG;
    1e84:	8f bf       	out	0x3f, r24	; 63
	}
}
    1e86:	df 91       	pop	r29
    1e88:	cf 91       	pop	r28
    1e8a:	08 95       	ret

00001e8c <digitalWrite>:
		#endif
	}
}

void digitalWrite(uint8_t pin, uint8_t val)
{
    1e8c:	1f 93       	push	r17
    1e8e:	cf 93       	push	r28
    1e90:	df 93       	push	r29
	uint8_t timer = digitalPinToTimer(pin);
    1e92:	28 2f       	mov	r18, r24
    1e94:	30 e0       	ldi	r19, 0x00	; 0
    1e96:	f9 01       	movw	r30, r18
    1e98:	e0 50       	subi	r30, 0x00	; 0
    1e9a:	ff 4f       	sbci	r31, 0xFF	; 255
    1e9c:	84 91       	lpm	r24, Z
	uint8_t bit = digitalPinToBitMask(pin);
    1e9e:	f9 01       	movw	r30, r18
    1ea0:	ec 5e       	subi	r30, 0xEC	; 236
    1ea2:	fe 4f       	sbci	r31, 0xFE	; 254
    1ea4:	d4 91       	lpm	r29, Z
	uint8_t port = digitalPinToPort(pin);
    1ea6:	f9 01       	movw	r30, r18
    1ea8:	e8 5d       	subi	r30, 0xD8	; 216
    1eaa:	fe 4f       	sbci	r31, 0xFE	; 254
    1eac:	c4 91       	lpm	r28, Z
	volatile uint8_t *out;

	if (port == NOT_A_PIN) return;
    1eae:	cc 23       	and	r28, r28
    1eb0:	c9 f0       	breq	.+50     	; 0x1ee4 <digitalWrite+0x58>
    1eb2:	16 2f       	mov	r17, r22

	// If the pin that support PWM output, we need to turn it off
	// before doing a digital write.
	if (timer != NOT_ON_TIMER) turnOffPWM(timer);
    1eb4:	81 11       	cpse	r24, r1
    1eb6:	0e 94 e1 0e 	call	0x1dc2	; 0x1dc2 <turnOffPWM>

	out = portOutputRegister(port);
    1eba:	ec 2f       	mov	r30, r28
    1ebc:	f0 e0       	ldi	r31, 0x00	; 0
    1ebe:	ee 0f       	add	r30, r30
    1ec0:	ff 1f       	adc	r31, r31
    1ec2:	ea 5b       	subi	r30, 0xBA	; 186
    1ec4:	fe 4f       	sbci	r31, 0xFE	; 254
    1ec6:	a5 91       	lpm	r26, Z+
    1ec8:	b4 91       	lpm	r27, Z

	uint8_t oldSREG = SREG;
    1eca:	8f b7       	in	r24, 0x3f	; 63
	cli();
    1ecc:	f8 94       	cli

	if (val == LOW) {
    1ece:	11 11       	cpse	r17, r1
    1ed0:	05 c0       	rjmp	.+10     	; 0x1edc <digitalWrite+0x50>
		*out &= ~bit;
    1ed2:	9c 91       	ld	r25, X
    1ed4:	ed 2f       	mov	r30, r29
    1ed6:	e0 95       	com	r30
    1ed8:	e9 23       	and	r30, r25
    1eda:	02 c0       	rjmp	.+4      	; 0x1ee0 <digitalWrite+0x54>
	} else {
		*out |= bit;
    1edc:	ec 91       	ld	r30, X
    1ede:	ed 2b       	or	r30, r29
    1ee0:	ec 93       	st	X, r30
	}

	SREG = oldSREG;
    1ee2:	8f bf       	out	0x3f, r24	; 63
}
    1ee4:	df 91       	pop	r29
    1ee6:	cf 91       	pop	r28
    1ee8:	1f 91       	pop	r17
    1eea:	08 95       	ret

00001eec <_Z3maplllll>:
  long diff = howbig - howsmall;
  return random(diff) + howsmall;
}

long map(long x, long in_min, long in_max, long out_min, long out_max)
{
    1eec:	4f 92       	push	r4
    1eee:	5f 92       	push	r5
    1ef0:	6f 92       	push	r6
    1ef2:	7f 92       	push	r7
    1ef4:	af 92       	push	r10
    1ef6:	bf 92       	push	r11
    1ef8:	cf 92       	push	r12
    1efa:	df 92       	push	r13
    1efc:	ef 92       	push	r14
    1efe:	ff 92       	push	r15
    1f00:	0f 93       	push	r16
    1f02:	1f 93       	push	r17
    1f04:	cf 93       	push	r28
    1f06:	df 93       	push	r29
    1f08:	cd b7       	in	r28, 0x3d	; 61
    1f0a:	de b7       	in	r29, 0x3e	; 62
    1f0c:	29 01       	movw	r4, r18
    1f0e:	3a 01       	movw	r6, r20
  return (x - in_min) * (out_max - out_min) / (in_max - in_min) + out_min;
    1f10:	9b 01       	movw	r18, r22
    1f12:	ac 01       	movw	r20, r24
    1f14:	24 19       	sub	r18, r4
    1f16:	35 09       	sbc	r19, r5
    1f18:	46 09       	sbc	r20, r6
    1f1a:	57 09       	sbc	r21, r7
    1f1c:	89 89       	ldd	r24, Y+17	; 0x11
    1f1e:	9a 89       	ldd	r25, Y+18	; 0x12
    1f20:	ab 89       	ldd	r26, Y+19	; 0x13
    1f22:	bc 89       	ldd	r27, Y+20	; 0x14
    1f24:	bc 01       	movw	r22, r24
    1f26:	cd 01       	movw	r24, r26
    1f28:	6a 19       	sub	r22, r10
    1f2a:	7b 09       	sbc	r23, r11
    1f2c:	8c 09       	sbc	r24, r12
    1f2e:	9d 09       	sbc	r25, r13
    1f30:	0e 94 b4 11 	call	0x2368	; 0x2368 <__mulsi3>
    1f34:	a8 01       	movw	r20, r16
    1f36:	97 01       	movw	r18, r14
    1f38:	24 19       	sub	r18, r4
    1f3a:	35 09       	sbc	r19, r5
    1f3c:	46 09       	sbc	r20, r6
    1f3e:	57 09       	sbc	r21, r7
    1f40:	0e 94 1a 12 	call	0x2434	; 0x2434 <__divmodsi4>
    1f44:	ca 01       	movw	r24, r20
    1f46:	b9 01       	movw	r22, r18
    1f48:	6a 0d       	add	r22, r10
    1f4a:	7b 1d       	adc	r23, r11
    1f4c:	8c 1d       	adc	r24, r12
    1f4e:	9d 1d       	adc	r25, r13
}
    1f50:	df 91       	pop	r29
    1f52:	cf 91       	pop	r28
    1f54:	1f 91       	pop	r17
    1f56:	0f 91       	pop	r16
    1f58:	ff 90       	pop	r15
    1f5a:	ef 90       	pop	r14
    1f5c:	df 90       	pop	r13
    1f5e:	cf 90       	pop	r12
    1f60:	bf 90       	pop	r11
    1f62:	af 90       	pop	r10
    1f64:	7f 90       	pop	r7
    1f66:	6f 90       	pop	r6
    1f68:	5f 90       	pop	r5
    1f6a:	4f 90       	pop	r4
    1f6c:	08 95       	ret

00001f6e <_ZN6StringD1Ev>:
StringSumHelper & operator + (const StringSumHelper &lhs, double num)
{
	StringSumHelper &a = const_cast<StringSumHelper&>(lhs);
	if (!a.concat(num)) a.invalidate();
	return a;
}
    1f6e:	fc 01       	movw	r30, r24
    1f70:	80 81       	ld	r24, Z
    1f72:	91 81       	ldd	r25, Z+1	; 0x01
    1f74:	0c 94 ee 12 	jmp	0x25dc	; 0x25dc <free>

00001f78 <_ZN6String10invalidateEv>:
    1f78:	cf 93       	push	r28
    1f7a:	df 93       	push	r29
    1f7c:	ec 01       	movw	r28, r24
    1f7e:	88 81       	ld	r24, Y
    1f80:	99 81       	ldd	r25, Y+1	; 0x01
    1f82:	00 97       	sbiw	r24, 0x00	; 0
    1f84:	11 f0       	breq	.+4      	; 0x1f8a <_ZN6String10invalidateEv+0x12>
    1f86:	0e 94 ee 12 	call	0x25dc	; 0x25dc <free>
    1f8a:	19 82       	std	Y+1, r1	; 0x01
    1f8c:	18 82       	st	Y, r1
    1f8e:	1d 82       	std	Y+5, r1	; 0x05
    1f90:	1c 82       	std	Y+4, r1	; 0x04
    1f92:	1b 82       	std	Y+3, r1	; 0x03
    1f94:	1a 82       	std	Y+2, r1	; 0x02
    1f96:	df 91       	pop	r29
    1f98:	cf 91       	pop	r28
    1f9a:	08 95       	ret

00001f9c <_ZN6String12changeBufferEj>:
    1f9c:	0f 93       	push	r16
    1f9e:	1f 93       	push	r17
    1fa0:	cf 93       	push	r28
    1fa2:	df 93       	push	r29
    1fa4:	ec 01       	movw	r28, r24
    1fa6:	8b 01       	movw	r16, r22
    1fa8:	6f 5f       	subi	r22, 0xFF	; 255
    1faa:	7f 4f       	sbci	r23, 0xFF	; 255
    1fac:	88 81       	ld	r24, Y
    1fae:	99 81       	ldd	r25, Y+1	; 0x01
    1fb0:	0e 94 86 13 	call	0x270c	; 0x270c <realloc>
    1fb4:	00 97       	sbiw	r24, 0x00	; 0
    1fb6:	31 f0       	breq	.+12     	; 0x1fc4 <_ZN6String12changeBufferEj+0x28>
    1fb8:	99 83       	std	Y+1, r25	; 0x01
    1fba:	88 83       	st	Y, r24
    1fbc:	1b 83       	std	Y+3, r17	; 0x03
    1fbe:	0a 83       	std	Y+2, r16	; 0x02
    1fc0:	81 e0       	ldi	r24, 0x01	; 1
    1fc2:	01 c0       	rjmp	.+2      	; 0x1fc6 <_ZN6String12changeBufferEj+0x2a>
    1fc4:	80 e0       	ldi	r24, 0x00	; 0
    1fc6:	df 91       	pop	r29
    1fc8:	cf 91       	pop	r28
    1fca:	1f 91       	pop	r17
    1fcc:	0f 91       	pop	r16
    1fce:	08 95       	ret

00001fd0 <_ZN6String7reserveEj>:
    1fd0:	cf 93       	push	r28
    1fd2:	df 93       	push	r29
    1fd4:	ec 01       	movw	r28, r24
    1fd6:	88 81       	ld	r24, Y
    1fd8:	99 81       	ldd	r25, Y+1	; 0x01
    1fda:	89 2b       	or	r24, r25
    1fdc:	29 f0       	breq	.+10     	; 0x1fe8 <_ZN6String7reserveEj+0x18>
    1fde:	8a 81       	ldd	r24, Y+2	; 0x02
    1fe0:	9b 81       	ldd	r25, Y+3	; 0x03
    1fe2:	86 17       	cp	r24, r22
    1fe4:	97 07       	cpc	r25, r23
    1fe6:	60 f4       	brcc	.+24     	; 0x2000 <_ZN6String7reserveEj+0x30>
    1fe8:	ce 01       	movw	r24, r28
    1fea:	0e 94 ce 0f 	call	0x1f9c	; 0x1f9c <_ZN6String12changeBufferEj>
    1fee:	88 23       	and	r24, r24
    1ff0:	41 f0       	breq	.+16     	; 0x2002 <_ZN6String7reserveEj+0x32>
    1ff2:	8c 81       	ldd	r24, Y+4	; 0x04
    1ff4:	9d 81       	ldd	r25, Y+5	; 0x05
    1ff6:	89 2b       	or	r24, r25
    1ff8:	19 f4       	brne	.+6      	; 0x2000 <_ZN6String7reserveEj+0x30>
    1ffa:	e8 81       	ld	r30, Y
    1ffc:	f9 81       	ldd	r31, Y+1	; 0x01
    1ffe:	10 82       	st	Z, r1
    2000:	81 e0       	ldi	r24, 0x01	; 1
    2002:	df 91       	pop	r29
    2004:	cf 91       	pop	r28
    2006:	08 95       	ret

00002008 <_ZN6String4copyEPKcj>:
    2008:	ef 92       	push	r14
    200a:	ff 92       	push	r15
    200c:	0f 93       	push	r16
    200e:	1f 93       	push	r17
    2010:	cf 93       	push	r28
    2012:	df 93       	push	r29
    2014:	ec 01       	movw	r28, r24
    2016:	7b 01       	movw	r14, r22
    2018:	8a 01       	movw	r16, r20
    201a:	ba 01       	movw	r22, r20
    201c:	0e 94 e8 0f 	call	0x1fd0	; 0x1fd0 <_ZN6String7reserveEj>
    2020:	81 11       	cpse	r24, r1
    2022:	04 c0       	rjmp	.+8      	; 0x202c <_ZN6String4copyEPKcj+0x24>
    2024:	ce 01       	movw	r24, r28
    2026:	0e 94 bc 0f 	call	0x1f78	; 0x1f78 <_ZN6String10invalidateEv>
    202a:	07 c0       	rjmp	.+14     	; 0x203a <_ZN6String4copyEPKcj+0x32>
    202c:	1d 83       	std	Y+5, r17	; 0x05
    202e:	0c 83       	std	Y+4, r16	; 0x04
    2030:	b7 01       	movw	r22, r14
    2032:	88 81       	ld	r24, Y
    2034:	99 81       	ldd	r25, Y+1	; 0x01
    2036:	0e 94 69 14 	call	0x28d2	; 0x28d2 <strcpy>
    203a:	ce 01       	movw	r24, r28
    203c:	df 91       	pop	r29
    203e:	cf 91       	pop	r28
    2040:	1f 91       	pop	r17
    2042:	0f 91       	pop	r16
    2044:	ff 90       	pop	r15
    2046:	ef 90       	pop	r14
    2048:	08 95       	ret

0000204a <_ZN6String4copyEPK19__FlashStringHelperj>:
    204a:	ef 92       	push	r14
    204c:	ff 92       	push	r15
    204e:	0f 93       	push	r16
    2050:	1f 93       	push	r17
    2052:	cf 93       	push	r28
    2054:	df 93       	push	r29
    2056:	ec 01       	movw	r28, r24
    2058:	7b 01       	movw	r14, r22
    205a:	8a 01       	movw	r16, r20
    205c:	ba 01       	movw	r22, r20
    205e:	0e 94 e8 0f 	call	0x1fd0	; 0x1fd0 <_ZN6String7reserveEj>
    2062:	81 11       	cpse	r24, r1
    2064:	04 c0       	rjmp	.+8      	; 0x206e <_ZN6String4copyEPK19__FlashStringHelperj+0x24>
    2066:	ce 01       	movw	r24, r28
    2068:	0e 94 bc 0f 	call	0x1f78	; 0x1f78 <_ZN6String10invalidateEv>
    206c:	07 c0       	rjmp	.+14     	; 0x207c <_ZN6String4copyEPK19__FlashStringHelperj+0x32>
    206e:	1d 83       	std	Y+5, r17	; 0x05
    2070:	0c 83       	std	Y+4, r16	; 0x04
    2072:	b7 01       	movw	r22, r14
    2074:	88 81       	ld	r24, Y
    2076:	99 81       	ldd	r25, Y+1	; 0x01
    2078:	0e 94 50 14 	call	0x28a0	; 0x28a0 <strcpy_P>
    207c:	ce 01       	movw	r24, r28
    207e:	df 91       	pop	r29
    2080:	cf 91       	pop	r28
    2082:	1f 91       	pop	r17
    2084:	0f 91       	pop	r16
    2086:	ff 90       	pop	r15
    2088:	ef 90       	pop	r14
    208a:	08 95       	ret

0000208c <_ZN6StringaSERKS_>:
    208c:	cf 93       	push	r28
    208e:	df 93       	push	r29
    2090:	ec 01       	movw	r28, r24
    2092:	fb 01       	movw	r30, r22
    2094:	86 17       	cp	r24, r22
    2096:	97 07       	cpc	r25, r23
    2098:	61 f0       	breq	.+24     	; 0x20b2 <_ZN6StringaSERKS_+0x26>
    209a:	60 81       	ld	r22, Z
    209c:	71 81       	ldd	r23, Z+1	; 0x01
    209e:	61 15       	cp	r22, r1
    20a0:	71 05       	cpc	r23, r1
    20a2:	29 f0       	breq	.+10     	; 0x20ae <_ZN6StringaSERKS_+0x22>
    20a4:	44 81       	ldd	r20, Z+4	; 0x04
    20a6:	55 81       	ldd	r21, Z+5	; 0x05
    20a8:	0e 94 04 10 	call	0x2008	; 0x2008 <_ZN6String4copyEPKcj>
    20ac:	02 c0       	rjmp	.+4      	; 0x20b2 <_ZN6StringaSERKS_+0x26>
    20ae:	0e 94 bc 0f 	call	0x1f78	; 0x1f78 <_ZN6String10invalidateEv>
    20b2:	ce 01       	movw	r24, r28
    20b4:	df 91       	pop	r29
    20b6:	cf 91       	pop	r28
    20b8:	08 95       	ret

000020ba <_ZN6StringC1ERKS_>:
    20ba:	fc 01       	movw	r30, r24
    20bc:	11 82       	std	Z+1, r1	; 0x01
    20be:	10 82       	st	Z, r1
    20c0:	13 82       	std	Z+3, r1	; 0x03
    20c2:	12 82       	std	Z+2, r1	; 0x02
    20c4:	15 82       	std	Z+5, r1	; 0x05
    20c6:	14 82       	std	Z+4, r1	; 0x04
    20c8:	0c 94 46 10 	jmp	0x208c	; 0x208c <_ZN6StringaSERKS_>

000020cc <_ZN6StringaSEPKc>:
    20cc:	cf 93       	push	r28
    20ce:	df 93       	push	r29
    20d0:	ec 01       	movw	r28, r24
    20d2:	61 15       	cp	r22, r1
    20d4:	71 05       	cpc	r23, r1
    20d6:	59 f0       	breq	.+22     	; 0x20ee <_ZN6StringaSEPKc+0x22>
    20d8:	fb 01       	movw	r30, r22
    20da:	01 90       	ld	r0, Z+
    20dc:	00 20       	and	r0, r0
    20de:	e9 f7       	brne	.-6      	; 0x20da <_ZN6StringaSEPKc+0xe>
    20e0:	31 97       	sbiw	r30, 0x01	; 1
    20e2:	af 01       	movw	r20, r30
    20e4:	46 1b       	sub	r20, r22
    20e6:	57 0b       	sbc	r21, r23
    20e8:	0e 94 04 10 	call	0x2008	; 0x2008 <_ZN6String4copyEPKcj>
    20ec:	02 c0       	rjmp	.+4      	; 0x20f2 <_ZN6StringaSEPKc+0x26>
    20ee:	0e 94 bc 0f 	call	0x1f78	; 0x1f78 <_ZN6String10invalidateEv>
    20f2:	ce 01       	movw	r24, r28
    20f4:	df 91       	pop	r29
    20f6:	cf 91       	pop	r28
    20f8:	08 95       	ret

000020fa <_ZN6StringC1Ehh>:
    20fa:	0f 93       	push	r16
    20fc:	1f 93       	push	r17
    20fe:	cf 93       	push	r28
    2100:	df 93       	push	r29
    2102:	cd b7       	in	r28, 0x3d	; 61
    2104:	de b7       	in	r29, 0x3e	; 62
    2106:	29 97       	sbiw	r28, 0x09	; 9
    2108:	0f b6       	in	r0, 0x3f	; 63
    210a:	f8 94       	cli
    210c:	de bf       	out	0x3e, r29	; 62
    210e:	0f be       	out	0x3f, r0	; 63
    2110:	cd bf       	out	0x3d, r28	; 61
    2112:	8c 01       	movw	r16, r24
    2114:	86 2f       	mov	r24, r22
    2116:	f8 01       	movw	r30, r16
    2118:	11 82       	std	Z+1, r1	; 0x01
    211a:	10 82       	st	Z, r1
    211c:	13 82       	std	Z+3, r1	; 0x03
    211e:	12 82       	std	Z+2, r1	; 0x02
    2120:	15 82       	std	Z+5, r1	; 0x05
    2122:	14 82       	std	Z+4, r1	; 0x04
    2124:	50 e0       	ldi	r21, 0x00	; 0
    2126:	be 01       	movw	r22, r28
    2128:	6f 5f       	subi	r22, 0xFF	; 255
    212a:	7f 4f       	sbci	r23, 0xFF	; 255
    212c:	90 e0       	ldi	r25, 0x00	; 0
    212e:	0e 94 b3 14 	call	0x2966	; 0x2966 <utoa>
    2132:	be 01       	movw	r22, r28
    2134:	6f 5f       	subi	r22, 0xFF	; 255
    2136:	7f 4f       	sbci	r23, 0xFF	; 255
    2138:	c8 01       	movw	r24, r16
    213a:	0e 94 66 10 	call	0x20cc	; 0x20cc <_ZN6StringaSEPKc>
    213e:	29 96       	adiw	r28, 0x09	; 9
    2140:	0f b6       	in	r0, 0x3f	; 63
    2142:	f8 94       	cli
    2144:	de bf       	out	0x3e, r29	; 62
    2146:	0f be       	out	0x3f, r0	; 63
    2148:	cd bf       	out	0x3d, r28	; 61
    214a:	df 91       	pop	r29
    214c:	cf 91       	pop	r28
    214e:	1f 91       	pop	r17
    2150:	0f 91       	pop	r16
    2152:	08 95       	ret

00002154 <_ZN6StringC1Eih>:
    2154:	0f 93       	push	r16
    2156:	1f 93       	push	r17
    2158:	cf 93       	push	r28
    215a:	df 93       	push	r29
    215c:	cd b7       	in	r28, 0x3d	; 61
    215e:	de b7       	in	r29, 0x3e	; 62
    2160:	62 97       	sbiw	r28, 0x12	; 18
    2162:	0f b6       	in	r0, 0x3f	; 63
    2164:	f8 94       	cli
    2166:	de bf       	out	0x3e, r29	; 62
    2168:	0f be       	out	0x3f, r0	; 63
    216a:	cd bf       	out	0x3d, r28	; 61
    216c:	8c 01       	movw	r16, r24
    216e:	cb 01       	movw	r24, r22
    2170:	f8 01       	movw	r30, r16
    2172:	11 82       	std	Z+1, r1	; 0x01
    2174:	10 82       	st	Z, r1
    2176:	13 82       	std	Z+3, r1	; 0x03
    2178:	12 82       	std	Z+2, r1	; 0x02
    217a:	15 82       	std	Z+5, r1	; 0x05
    217c:	14 82       	std	Z+4, r1	; 0x04
    217e:	50 e0       	ldi	r21, 0x00	; 0
    2180:	be 01       	movw	r22, r28
    2182:	6f 5f       	subi	r22, 0xFF	; 255
    2184:	7f 4f       	sbci	r23, 0xFF	; 255
    2186:	0e 94 70 14 	call	0x28e0	; 0x28e0 <itoa>
    218a:	be 01       	movw	r22, r28
    218c:	6f 5f       	subi	r22, 0xFF	; 255
    218e:	7f 4f       	sbci	r23, 0xFF	; 255
    2190:	c8 01       	movw	r24, r16
    2192:	0e 94 66 10 	call	0x20cc	; 0x20cc <_ZN6StringaSEPKc>
    2196:	62 96       	adiw	r28, 0x12	; 18
    2198:	0f b6       	in	r0, 0x3f	; 63
    219a:	f8 94       	cli
    219c:	de bf       	out	0x3e, r29	; 62
    219e:	0f be       	out	0x3f, r0	; 63
    21a0:	cd bf       	out	0x3d, r28	; 61
    21a2:	df 91       	pop	r29
    21a4:	cf 91       	pop	r28
    21a6:	1f 91       	pop	r17
    21a8:	0f 91       	pop	r16
    21aa:	08 95       	ret

000021ac <_ZN6StringC1Emh>:
    21ac:	0f 93       	push	r16
    21ae:	1f 93       	push	r17
    21b0:	cf 93       	push	r28
    21b2:	df 93       	push	r29
    21b4:	cd b7       	in	r28, 0x3d	; 61
    21b6:	de b7       	in	r29, 0x3e	; 62
    21b8:	a1 97       	sbiw	r28, 0x21	; 33
    21ba:	0f b6       	in	r0, 0x3f	; 63
    21bc:	f8 94       	cli
    21be:	de bf       	out	0x3e, r29	; 62
    21c0:	0f be       	out	0x3f, r0	; 63
    21c2:	cd bf       	out	0x3d, r28	; 61
    21c4:	8c 01       	movw	r16, r24
    21c6:	cb 01       	movw	r24, r22
    21c8:	ba 01       	movw	r22, r20
    21ca:	f8 01       	movw	r30, r16
    21cc:	11 82       	std	Z+1, r1	; 0x01
    21ce:	10 82       	st	Z, r1
    21d0:	13 82       	std	Z+3, r1	; 0x03
    21d2:	12 82       	std	Z+2, r1	; 0x02
    21d4:	15 82       	std	Z+5, r1	; 0x05
    21d6:	14 82       	std	Z+4, r1	; 0x04
    21d8:	30 e0       	ldi	r19, 0x00	; 0
    21da:	ae 01       	movw	r20, r28
    21dc:	4f 5f       	subi	r20, 0xFF	; 255
    21de:	5f 4f       	sbci	r21, 0xFF	; 255
    21e0:	0e 94 86 14 	call	0x290c	; 0x290c <ultoa>
    21e4:	be 01       	movw	r22, r28
    21e6:	6f 5f       	subi	r22, 0xFF	; 255
    21e8:	7f 4f       	sbci	r23, 0xFF	; 255
    21ea:	c8 01       	movw	r24, r16
    21ec:	0e 94 66 10 	call	0x20cc	; 0x20cc <_ZN6StringaSEPKc>
    21f0:	a1 96       	adiw	r28, 0x21	; 33
    21f2:	0f b6       	in	r0, 0x3f	; 63
    21f4:	f8 94       	cli
    21f6:	de bf       	out	0x3e, r29	; 62
    21f8:	0f be       	out	0x3f, r0	; 63
    21fa:	cd bf       	out	0x3d, r28	; 61
    21fc:	df 91       	pop	r29
    21fe:	cf 91       	pop	r28
    2200:	1f 91       	pop	r17
    2202:	0f 91       	pop	r16
    2204:	08 95       	ret

00002206 <_ZN6StringaSEPK19__FlashStringHelper>:
    2206:	0f 93       	push	r16
    2208:	1f 93       	push	r17
    220a:	cf 93       	push	r28
    220c:	df 93       	push	r29
    220e:	00 d0       	rcall	.+0      	; 0x2210 <_ZN6StringaSEPK19__FlashStringHelper+0xa>
    2210:	cd b7       	in	r28, 0x3d	; 61
    2212:	de b7       	in	r29, 0x3e	; 62
    2214:	8c 01       	movw	r16, r24
    2216:	61 15       	cp	r22, r1
    2218:	71 05       	cpc	r23, r1
    221a:	61 f0       	breq	.+24     	; 0x2234 <_ZN6StringaSEPK19__FlashStringHelper+0x2e>
    221c:	cb 01       	movw	r24, r22
    221e:	69 83       	std	Y+1, r22	; 0x01
    2220:	7a 83       	std	Y+2, r23	; 0x02
    2222:	0e 94 57 14 	call	0x28ae	; 0x28ae <__strlen_P>
    2226:	ac 01       	movw	r20, r24
    2228:	69 81       	ldd	r22, Y+1	; 0x01
    222a:	7a 81       	ldd	r23, Y+2	; 0x02
    222c:	c8 01       	movw	r24, r16
    222e:	0e 94 25 10 	call	0x204a	; 0x204a <_ZN6String4copyEPK19__FlashStringHelperj>
    2232:	02 c0       	rjmp	.+4      	; 0x2238 <_ZN6StringaSEPK19__FlashStringHelper+0x32>
    2234:	0e 94 bc 0f 	call	0x1f78	; 0x1f78 <_ZN6String10invalidateEv>
    2238:	c8 01       	movw	r24, r16
    223a:	0f 90       	pop	r0
    223c:	0f 90       	pop	r0
    223e:	df 91       	pop	r29
    2240:	cf 91       	pop	r28
    2242:	1f 91       	pop	r17
    2244:	0f 91       	pop	r16
    2246:	08 95       	ret

00002248 <_ZN6StringC1EPK19__FlashStringHelper>:
    2248:	fc 01       	movw	r30, r24
    224a:	11 82       	std	Z+1, r1	; 0x01
    224c:	10 82       	st	Z, r1
    224e:	13 82       	std	Z+3, r1	; 0x03
    2250:	12 82       	std	Z+2, r1	; 0x02
    2252:	15 82       	std	Z+5, r1	; 0x05
    2254:	14 82       	std	Z+4, r1	; 0x04
    2256:	0c 94 03 11 	jmp	0x2206	; 0x2206 <_ZN6StringaSEPK19__FlashStringHelper>

0000225a <_ZN6String6concatEPKcj>:
    225a:	ef 92       	push	r14
    225c:	ff 92       	push	r15
    225e:	0f 93       	push	r16
    2260:	1f 93       	push	r17
    2262:	cf 93       	push	r28
    2264:	df 93       	push	r29
    2266:	fc 01       	movw	r30, r24
    2268:	24 81       	ldd	r18, Z+4	; 0x04
    226a:	35 81       	ldd	r19, Z+5	; 0x05
    226c:	61 15       	cp	r22, r1
    226e:	71 05       	cpc	r23, r1
    2270:	11 f4       	brne	.+4      	; 0x2276 <_ZN6String6concatEPKcj+0x1c>
    2272:	80 e0       	ldi	r24, 0x00	; 0
    2274:	19 c0       	rjmp	.+50     	; 0x22a8 <_ZN6String6concatEPKcj+0x4e>
    2276:	41 15       	cp	r20, r1
    2278:	51 05       	cpc	r21, r1
    227a:	a9 f0       	breq	.+42     	; 0x22a6 <_ZN6String6concatEPKcj+0x4c>
    227c:	7b 01       	movw	r14, r22
    227e:	ec 01       	movw	r28, r24
    2280:	8a 01       	movw	r16, r20
    2282:	02 0f       	add	r16, r18
    2284:	13 1f       	adc	r17, r19
    2286:	b8 01       	movw	r22, r16
    2288:	0e 94 e8 0f 	call	0x1fd0	; 0x1fd0 <_ZN6String7reserveEj>
    228c:	88 23       	and	r24, r24
    228e:	89 f3       	breq	.-30     	; 0x2272 <_ZN6String6concatEPKcj+0x18>
    2290:	28 81       	ld	r18, Y
    2292:	39 81       	ldd	r19, Y+1	; 0x01
    2294:	8c 81       	ldd	r24, Y+4	; 0x04
    2296:	9d 81       	ldd	r25, Y+5	; 0x05
    2298:	b7 01       	movw	r22, r14
    229a:	82 0f       	add	r24, r18
    229c:	93 1f       	adc	r25, r19
    229e:	0e 94 69 14 	call	0x28d2	; 0x28d2 <strcpy>
    22a2:	1d 83       	std	Y+5, r17	; 0x05
    22a4:	0c 83       	std	Y+4, r16	; 0x04
    22a6:	81 e0       	ldi	r24, 0x01	; 1
    22a8:	df 91       	pop	r29
    22aa:	cf 91       	pop	r28
    22ac:	1f 91       	pop	r17
    22ae:	0f 91       	pop	r16
    22b0:	ff 90       	pop	r15
    22b2:	ef 90       	pop	r14
    22b4:	08 95       	ret

000022b6 <_ZN6String6concatERKS_>:
    22b6:	fb 01       	movw	r30, r22
    22b8:	44 81       	ldd	r20, Z+4	; 0x04
    22ba:	55 81       	ldd	r21, Z+5	; 0x05
    22bc:	60 81       	ld	r22, Z
    22be:	71 81       	ldd	r23, Z+1	; 0x01
    22c0:	0c 94 2d 11 	jmp	0x225a	; 0x225a <_ZN6String6concatEPKcj>

000022c4 <_ZN6String6concatEPK19__FlashStringHelper>:
    22c4:	ef 92       	push	r14
    22c6:	ff 92       	push	r15
    22c8:	0f 93       	push	r16
    22ca:	1f 93       	push	r17
    22cc:	cf 93       	push	r28
    22ce:	df 93       	push	r29
    22d0:	61 15       	cp	r22, r1
    22d2:	71 05       	cpc	r23, r1
    22d4:	11 f4       	brne	.+4      	; 0x22da <_ZN6String6concatEPK19__FlashStringHelper+0x16>
    22d6:	80 e0       	ldi	r24, 0x00	; 0
    22d8:	1e c0       	rjmp	.+60     	; 0x2316 <_ZN6String6concatEPK19__FlashStringHelper+0x52>
    22da:	8b 01       	movw	r16, r22
    22dc:	ec 01       	movw	r28, r24
    22de:	cb 01       	movw	r24, r22
    22e0:	0e 94 57 14 	call	0x28ae	; 0x28ae <__strlen_P>
    22e4:	00 97       	sbiw	r24, 0x00	; 0
    22e6:	b1 f0       	breq	.+44     	; 0x2314 <_ZN6String6concatEPK19__FlashStringHelper+0x50>
    22e8:	2c 81       	ldd	r18, Y+4	; 0x04
    22ea:	3d 81       	ldd	r19, Y+5	; 0x05
    22ec:	7c 01       	movw	r14, r24
    22ee:	e2 0e       	add	r14, r18
    22f0:	f3 1e       	adc	r15, r19
    22f2:	b7 01       	movw	r22, r14
    22f4:	ce 01       	movw	r24, r28
    22f6:	0e 94 e8 0f 	call	0x1fd0	; 0x1fd0 <_ZN6String7reserveEj>
    22fa:	88 23       	and	r24, r24
    22fc:	61 f3       	breq	.-40     	; 0x22d6 <_ZN6String6concatEPK19__FlashStringHelper+0x12>
    22fe:	28 81       	ld	r18, Y
    2300:	39 81       	ldd	r19, Y+1	; 0x01
    2302:	8c 81       	ldd	r24, Y+4	; 0x04
    2304:	9d 81       	ldd	r25, Y+5	; 0x05
    2306:	b8 01       	movw	r22, r16
    2308:	82 0f       	add	r24, r18
    230a:	93 1f       	adc	r25, r19
    230c:	0e 94 50 14 	call	0x28a0	; 0x28a0 <strcpy_P>
    2310:	fd 82       	std	Y+5, r15	; 0x05
    2312:	ec 82       	std	Y+4, r14	; 0x04
    2314:	81 e0       	ldi	r24, 0x01	; 1
    2316:	df 91       	pop	r29
    2318:	cf 91       	pop	r28
    231a:	1f 91       	pop	r17
    231c:	0f 91       	pop	r16
    231e:	ff 90       	pop	r15
    2320:	ef 90       	pop	r14
    2322:	08 95       	ret

00002324 <_ZplRK15StringSumHelperRK6String>:
    2324:	cf 93       	push	r28
    2326:	df 93       	push	r29
    2328:	ec 01       	movw	r28, r24
    232a:	fb 01       	movw	r30, r22
    232c:	44 81       	ldd	r20, Z+4	; 0x04
    232e:	55 81       	ldd	r21, Z+5	; 0x05
    2330:	60 81       	ld	r22, Z
    2332:	71 81       	ldd	r23, Z+1	; 0x01
    2334:	0e 94 2d 11 	call	0x225a	; 0x225a <_ZN6String6concatEPKcj>
    2338:	81 11       	cpse	r24, r1
    233a:	03 c0       	rjmp	.+6      	; 0x2342 <_ZplRK15StringSumHelperRK6String+0x1e>
    233c:	ce 01       	movw	r24, r28
    233e:	0e 94 bc 0f 	call	0x1f78	; 0x1f78 <_ZN6String10invalidateEv>
    2342:	ce 01       	movw	r24, r28
    2344:	df 91       	pop	r29
    2346:	cf 91       	pop	r28
    2348:	08 95       	ret

0000234a <_ZplRK15StringSumHelperPK19__FlashStringHelper>:

StringSumHelper & operator + (const StringSumHelper &lhs, const __FlashStringHelper *rhs)
{
    234a:	cf 93       	push	r28
    234c:	df 93       	push	r29
    234e:	ec 01       	movw	r28, r24
	StringSumHelper &a = const_cast<StringSumHelper&>(lhs);
	if (!a.concat(rhs))	a.invalidate();
    2350:	0e 94 62 11 	call	0x22c4	; 0x22c4 <_ZN6String6concatEPK19__FlashStringHelper>
    2354:	81 11       	cpse	r24, r1
    2356:	03 c0       	rjmp	.+6      	; 0x235e <_ZplRK15StringSumHelperPK19__FlashStringHelper+0x14>
    2358:	ce 01       	movw	r24, r28
    235a:	0e 94 bc 0f 	call	0x1f78	; 0x1f78 <_ZN6String10invalidateEv>
	return a;
}
    235e:	ce 01       	movw	r24, r28
    2360:	df 91       	pop	r29
    2362:	cf 91       	pop	r28
    2364:	08 95       	ret

00002366 <yield>:
 * libraries or sketches that supports cooperative threads.
 *
 * Its defined as a weak symbol and it can be redefined to implement a
 * real cooperative scheduler.
 */
static void __empty() {
    2366:	08 95       	ret

00002368 <__mulsi3>:
    2368:	db 01       	movw	r26, r22
    236a:	8f 93       	push	r24
    236c:	9f 93       	push	r25
    236e:	0e 94 39 12 	call	0x2472	; 0x2472 <__muluhisi3>
    2372:	bf 91       	pop	r27
    2374:	af 91       	pop	r26
    2376:	a2 9f       	mul	r26, r18
    2378:	80 0d       	add	r24, r0
    237a:	91 1d       	adc	r25, r1
    237c:	a3 9f       	mul	r26, r19
    237e:	90 0d       	add	r25, r0
    2380:	b2 9f       	mul	r27, r18
    2382:	90 0d       	add	r25, r0
    2384:	11 24       	eor	r1, r1
    2386:	08 95       	ret

00002388 <__udivmodqi4>:
    2388:	99 1b       	sub	r25, r25
    238a:	79 e0       	ldi	r23, 0x09	; 9
    238c:	04 c0       	rjmp	.+8      	; 0x2396 <__udivmodqi4_ep>

0000238e <__udivmodqi4_loop>:
    238e:	99 1f       	adc	r25, r25
    2390:	96 17       	cp	r25, r22
    2392:	08 f0       	brcs	.+2      	; 0x2396 <__udivmodqi4_ep>
    2394:	96 1b       	sub	r25, r22

00002396 <__udivmodqi4_ep>:
    2396:	88 1f       	adc	r24, r24
    2398:	7a 95       	dec	r23
    239a:	c9 f7       	brne	.-14     	; 0x238e <__udivmodqi4_loop>
    239c:	80 95       	com	r24
    239e:	08 95       	ret

000023a0 <__udivmodhi4>:
    23a0:	aa 1b       	sub	r26, r26
    23a2:	bb 1b       	sub	r27, r27
    23a4:	51 e1       	ldi	r21, 0x11	; 17
    23a6:	07 c0       	rjmp	.+14     	; 0x23b6 <__udivmodhi4_ep>

000023a8 <__udivmodhi4_loop>:
    23a8:	aa 1f       	adc	r26, r26
    23aa:	bb 1f       	adc	r27, r27
    23ac:	a6 17       	cp	r26, r22
    23ae:	b7 07       	cpc	r27, r23
    23b0:	10 f0       	brcs	.+4      	; 0x23b6 <__udivmodhi4_ep>
    23b2:	a6 1b       	sub	r26, r22
    23b4:	b7 0b       	sbc	r27, r23

000023b6 <__udivmodhi4_ep>:
    23b6:	88 1f       	adc	r24, r24
    23b8:	99 1f       	adc	r25, r25
    23ba:	5a 95       	dec	r21
    23bc:	a9 f7       	brne	.-22     	; 0x23a8 <__udivmodhi4_loop>
    23be:	80 95       	com	r24
    23c0:	90 95       	com	r25
    23c2:	bc 01       	movw	r22, r24
    23c4:	cd 01       	movw	r24, r26
    23c6:	08 95       	ret

000023c8 <__divmodhi4>:
    23c8:	97 fb       	bst	r25, 7
    23ca:	07 2e       	mov	r0, r23
    23cc:	16 f4       	brtc	.+4      	; 0x23d2 <__divmodhi4+0xa>
    23ce:	00 94       	com	r0
    23d0:	07 d0       	rcall	.+14     	; 0x23e0 <__divmodhi4_neg1>
    23d2:	77 fd       	sbrc	r23, 7
    23d4:	09 d0       	rcall	.+18     	; 0x23e8 <__divmodhi4_neg2>
    23d6:	0e 94 d0 11 	call	0x23a0	; 0x23a0 <__udivmodhi4>
    23da:	07 fc       	sbrc	r0, 7
    23dc:	05 d0       	rcall	.+10     	; 0x23e8 <__divmodhi4_neg2>
    23de:	3e f4       	brtc	.+14     	; 0x23ee <__divmodhi4_exit>

000023e0 <__divmodhi4_neg1>:
    23e0:	90 95       	com	r25
    23e2:	81 95       	neg	r24
    23e4:	9f 4f       	sbci	r25, 0xFF	; 255
    23e6:	08 95       	ret

000023e8 <__divmodhi4_neg2>:
    23e8:	70 95       	com	r23
    23ea:	61 95       	neg	r22
    23ec:	7f 4f       	sbci	r23, 0xFF	; 255

000023ee <__divmodhi4_exit>:
    23ee:	08 95       	ret

000023f0 <__udivmodsi4>:
    23f0:	a1 e2       	ldi	r26, 0x21	; 33
    23f2:	1a 2e       	mov	r1, r26
    23f4:	aa 1b       	sub	r26, r26
    23f6:	bb 1b       	sub	r27, r27
    23f8:	fd 01       	movw	r30, r26
    23fa:	0d c0       	rjmp	.+26     	; 0x2416 <__udivmodsi4_ep>

000023fc <__udivmodsi4_loop>:
    23fc:	aa 1f       	adc	r26, r26
    23fe:	bb 1f       	adc	r27, r27
    2400:	ee 1f       	adc	r30, r30
    2402:	ff 1f       	adc	r31, r31
    2404:	a2 17       	cp	r26, r18
    2406:	b3 07       	cpc	r27, r19
    2408:	e4 07       	cpc	r30, r20
    240a:	f5 07       	cpc	r31, r21
    240c:	20 f0       	brcs	.+8      	; 0x2416 <__udivmodsi4_ep>
    240e:	a2 1b       	sub	r26, r18
    2410:	b3 0b       	sbc	r27, r19
    2412:	e4 0b       	sbc	r30, r20
    2414:	f5 0b       	sbc	r31, r21

00002416 <__udivmodsi4_ep>:
    2416:	66 1f       	adc	r22, r22
    2418:	77 1f       	adc	r23, r23
    241a:	88 1f       	adc	r24, r24
    241c:	99 1f       	adc	r25, r25
    241e:	1a 94       	dec	r1
    2420:	69 f7       	brne	.-38     	; 0x23fc <__udivmodsi4_loop>
    2422:	60 95       	com	r22
    2424:	70 95       	com	r23
    2426:	80 95       	com	r24
    2428:	90 95       	com	r25
    242a:	9b 01       	movw	r18, r22
    242c:	ac 01       	movw	r20, r24
    242e:	bd 01       	movw	r22, r26
    2430:	cf 01       	movw	r24, r30
    2432:	08 95       	ret

00002434 <__divmodsi4>:
    2434:	05 2e       	mov	r0, r21
    2436:	97 fb       	bst	r25, 7
    2438:	1e f4       	brtc	.+6      	; 0x2440 <__divmodsi4+0xc>
    243a:	00 94       	com	r0
    243c:	0e 94 31 12 	call	0x2462	; 0x2462 <__negsi2>
    2440:	57 fd       	sbrc	r21, 7
    2442:	07 d0       	rcall	.+14     	; 0x2452 <__divmodsi4_neg2>
    2444:	0e 94 f8 11 	call	0x23f0	; 0x23f0 <__udivmodsi4>
    2448:	07 fc       	sbrc	r0, 7
    244a:	03 d0       	rcall	.+6      	; 0x2452 <__divmodsi4_neg2>
    244c:	4e f4       	brtc	.+18     	; 0x2460 <__divmodsi4_exit>
    244e:	0c 94 31 12 	jmp	0x2462	; 0x2462 <__negsi2>

00002452 <__divmodsi4_neg2>:
    2452:	50 95       	com	r21
    2454:	40 95       	com	r20
    2456:	30 95       	com	r19
    2458:	21 95       	neg	r18
    245a:	3f 4f       	sbci	r19, 0xFF	; 255
    245c:	4f 4f       	sbci	r20, 0xFF	; 255
    245e:	5f 4f       	sbci	r21, 0xFF	; 255

00002460 <__divmodsi4_exit>:
    2460:	08 95       	ret

00002462 <__negsi2>:
    2462:	90 95       	com	r25
    2464:	80 95       	com	r24
    2466:	70 95       	com	r23
    2468:	61 95       	neg	r22
    246a:	7f 4f       	sbci	r23, 0xFF	; 255
    246c:	8f 4f       	sbci	r24, 0xFF	; 255
    246e:	9f 4f       	sbci	r25, 0xFF	; 255
    2470:	08 95       	ret

00002472 <__muluhisi3>:
    2472:	0e 94 4a 12 	call	0x2494	; 0x2494 <__umulhisi3>
    2476:	a5 9f       	mul	r26, r21
    2478:	90 0d       	add	r25, r0
    247a:	b4 9f       	mul	r27, r20
    247c:	90 0d       	add	r25, r0
    247e:	a4 9f       	mul	r26, r20
    2480:	80 0d       	add	r24, r0
    2482:	91 1d       	adc	r25, r1
    2484:	11 24       	eor	r1, r1
    2486:	08 95       	ret

00002488 <__tablejump2__>:
    2488:	ee 0f       	add	r30, r30
    248a:	ff 1f       	adc	r31, r31
    248c:	05 90       	lpm	r0, Z+
    248e:	f4 91       	lpm	r31, Z
    2490:	e0 2d       	mov	r30, r0
    2492:	09 94       	ijmp

00002494 <__umulhisi3>:
    2494:	a2 9f       	mul	r26, r18
    2496:	b0 01       	movw	r22, r0
    2498:	b3 9f       	mul	r27, r19
    249a:	c0 01       	movw	r24, r0
    249c:	a3 9f       	mul	r26, r19
    249e:	70 0d       	add	r23, r0
    24a0:	81 1d       	adc	r24, r1
    24a2:	11 24       	eor	r1, r1
    24a4:	91 1d       	adc	r25, r1
    24a6:	b2 9f       	mul	r27, r18
    24a8:	70 0d       	add	r23, r0
    24aa:	81 1d       	adc	r24, r1
    24ac:	11 24       	eor	r1, r1
    24ae:	91 1d       	adc	r25, r1
    24b0:	08 95       	ret

000024b2 <malloc>:
    24b2:	cf 93       	push	r28
    24b4:	df 93       	push	r29
    24b6:	82 30       	cpi	r24, 0x02	; 2
    24b8:	91 05       	cpc	r25, r1
    24ba:	10 f4       	brcc	.+4      	; 0x24c0 <malloc+0xe>
    24bc:	82 e0       	ldi	r24, 0x02	; 2
    24be:	90 e0       	ldi	r25, 0x00	; 0
    24c0:	e0 91 3a 02 	lds	r30, 0x023A	; 0x80023a <__flp>
    24c4:	f0 91 3b 02 	lds	r31, 0x023B	; 0x80023b <__flp+0x1>
    24c8:	20 e0       	ldi	r18, 0x00	; 0
    24ca:	30 e0       	ldi	r19, 0x00	; 0
    24cc:	c0 e0       	ldi	r28, 0x00	; 0
    24ce:	d0 e0       	ldi	r29, 0x00	; 0
    24d0:	30 97       	sbiw	r30, 0x00	; 0
    24d2:	11 f1       	breq	.+68     	; 0x2518 <malloc+0x66>
    24d4:	40 81       	ld	r20, Z
    24d6:	51 81       	ldd	r21, Z+1	; 0x01
    24d8:	48 17       	cp	r20, r24
    24da:	59 07       	cpc	r21, r25
    24dc:	c0 f0       	brcs	.+48     	; 0x250e <malloc+0x5c>
    24de:	48 17       	cp	r20, r24
    24e0:	59 07       	cpc	r21, r25
    24e2:	61 f4       	brne	.+24     	; 0x24fc <malloc+0x4a>
    24e4:	82 81       	ldd	r24, Z+2	; 0x02
    24e6:	93 81       	ldd	r25, Z+3	; 0x03
    24e8:	20 97       	sbiw	r28, 0x00	; 0
    24ea:	19 f0       	breq	.+6      	; 0x24f2 <malloc+0x40>
    24ec:	9b 83       	std	Y+3, r25	; 0x03
    24ee:	8a 83       	std	Y+2, r24	; 0x02
    24f0:	2b c0       	rjmp	.+86     	; 0x2548 <malloc+0x96>
    24f2:	90 93 3b 02 	sts	0x023B, r25	; 0x80023b <__flp+0x1>
    24f6:	80 93 3a 02 	sts	0x023A, r24	; 0x80023a <__flp>
    24fa:	26 c0       	rjmp	.+76     	; 0x2548 <malloc+0x96>
    24fc:	21 15       	cp	r18, r1
    24fe:	31 05       	cpc	r19, r1
    2500:	19 f0       	breq	.+6      	; 0x2508 <malloc+0x56>
    2502:	42 17       	cp	r20, r18
    2504:	53 07       	cpc	r21, r19
    2506:	18 f4       	brcc	.+6      	; 0x250e <malloc+0x5c>
    2508:	9a 01       	movw	r18, r20
    250a:	be 01       	movw	r22, r28
    250c:	df 01       	movw	r26, r30
    250e:	ef 01       	movw	r28, r30
    2510:	02 80       	ldd	r0, Z+2	; 0x02
    2512:	f3 81       	ldd	r31, Z+3	; 0x03
    2514:	e0 2d       	mov	r30, r0
    2516:	dc cf       	rjmp	.-72     	; 0x24d0 <malloc+0x1e>
    2518:	21 15       	cp	r18, r1
    251a:	31 05       	cpc	r19, r1
    251c:	09 f1       	breq	.+66     	; 0x2560 <malloc+0xae>
    251e:	28 1b       	sub	r18, r24
    2520:	39 0b       	sbc	r19, r25
    2522:	24 30       	cpi	r18, 0x04	; 4
    2524:	31 05       	cpc	r19, r1
    2526:	90 f4       	brcc	.+36     	; 0x254c <malloc+0x9a>
    2528:	12 96       	adiw	r26, 0x02	; 2
    252a:	8d 91       	ld	r24, X+
    252c:	9c 91       	ld	r25, X
    252e:	13 97       	sbiw	r26, 0x03	; 3
    2530:	61 15       	cp	r22, r1
    2532:	71 05       	cpc	r23, r1
    2534:	21 f0       	breq	.+8      	; 0x253e <malloc+0x8c>
    2536:	fb 01       	movw	r30, r22
    2538:	93 83       	std	Z+3, r25	; 0x03
    253a:	82 83       	std	Z+2, r24	; 0x02
    253c:	04 c0       	rjmp	.+8      	; 0x2546 <malloc+0x94>
    253e:	90 93 3b 02 	sts	0x023B, r25	; 0x80023b <__flp+0x1>
    2542:	80 93 3a 02 	sts	0x023A, r24	; 0x80023a <__flp>
    2546:	fd 01       	movw	r30, r26
    2548:	32 96       	adiw	r30, 0x02	; 2
    254a:	44 c0       	rjmp	.+136    	; 0x25d4 <malloc+0x122>
    254c:	fd 01       	movw	r30, r26
    254e:	e2 0f       	add	r30, r18
    2550:	f3 1f       	adc	r31, r19
    2552:	81 93       	st	Z+, r24
    2554:	91 93       	st	Z+, r25
    2556:	22 50       	subi	r18, 0x02	; 2
    2558:	31 09       	sbc	r19, r1
    255a:	2d 93       	st	X+, r18
    255c:	3c 93       	st	X, r19
    255e:	3a c0       	rjmp	.+116    	; 0x25d4 <malloc+0x122>
    2560:	20 91 38 02 	lds	r18, 0x0238	; 0x800238 <__brkval>
    2564:	30 91 39 02 	lds	r19, 0x0239	; 0x800239 <__brkval+0x1>
    2568:	23 2b       	or	r18, r19
    256a:	41 f4       	brne	.+16     	; 0x257c <malloc+0xca>
    256c:	20 91 02 01 	lds	r18, 0x0102	; 0x800102 <__malloc_heap_start>
    2570:	30 91 03 01 	lds	r19, 0x0103	; 0x800103 <__malloc_heap_start+0x1>
    2574:	30 93 39 02 	sts	0x0239, r19	; 0x800239 <__brkval+0x1>
    2578:	20 93 38 02 	sts	0x0238, r18	; 0x800238 <__brkval>
    257c:	20 91 00 01 	lds	r18, 0x0100	; 0x800100 <__data_start>
    2580:	30 91 01 01 	lds	r19, 0x0101	; 0x800101 <__data_start+0x1>
    2584:	21 15       	cp	r18, r1
    2586:	31 05       	cpc	r19, r1
    2588:	41 f4       	brne	.+16     	; 0x259a <malloc+0xe8>
    258a:	2d b7       	in	r18, 0x3d	; 61
    258c:	3e b7       	in	r19, 0x3e	; 62
    258e:	40 91 04 01 	lds	r20, 0x0104	; 0x800104 <__malloc_margin>
    2592:	50 91 05 01 	lds	r21, 0x0105	; 0x800105 <__malloc_margin+0x1>
    2596:	24 1b       	sub	r18, r20
    2598:	35 0b       	sbc	r19, r21
    259a:	e0 91 38 02 	lds	r30, 0x0238	; 0x800238 <__brkval>
    259e:	f0 91 39 02 	lds	r31, 0x0239	; 0x800239 <__brkval+0x1>
    25a2:	e2 17       	cp	r30, r18
    25a4:	f3 07       	cpc	r31, r19
    25a6:	a0 f4       	brcc	.+40     	; 0x25d0 <malloc+0x11e>
    25a8:	2e 1b       	sub	r18, r30
    25aa:	3f 0b       	sbc	r19, r31
    25ac:	28 17       	cp	r18, r24
    25ae:	39 07       	cpc	r19, r25
    25b0:	78 f0       	brcs	.+30     	; 0x25d0 <malloc+0x11e>
    25b2:	ac 01       	movw	r20, r24
    25b4:	4e 5f       	subi	r20, 0xFE	; 254
    25b6:	5f 4f       	sbci	r21, 0xFF	; 255
    25b8:	24 17       	cp	r18, r20
    25ba:	35 07       	cpc	r19, r21
    25bc:	48 f0       	brcs	.+18     	; 0x25d0 <malloc+0x11e>
    25be:	4e 0f       	add	r20, r30
    25c0:	5f 1f       	adc	r21, r31
    25c2:	50 93 39 02 	sts	0x0239, r21	; 0x800239 <__brkval+0x1>
    25c6:	40 93 38 02 	sts	0x0238, r20	; 0x800238 <__brkval>
    25ca:	81 93       	st	Z+, r24
    25cc:	91 93       	st	Z+, r25
    25ce:	02 c0       	rjmp	.+4      	; 0x25d4 <malloc+0x122>
    25d0:	e0 e0       	ldi	r30, 0x00	; 0
    25d2:	f0 e0       	ldi	r31, 0x00	; 0
    25d4:	cf 01       	movw	r24, r30
    25d6:	df 91       	pop	r29
    25d8:	cf 91       	pop	r28
    25da:	08 95       	ret

000025dc <free>:
    25dc:	0f 93       	push	r16
    25de:	1f 93       	push	r17
    25e0:	cf 93       	push	r28
    25e2:	df 93       	push	r29
    25e4:	00 97       	sbiw	r24, 0x00	; 0
    25e6:	09 f4       	brne	.+2      	; 0x25ea <free+0xe>
    25e8:	8c c0       	rjmp	.+280    	; 0x2702 <free+0x126>
    25ea:	fc 01       	movw	r30, r24
    25ec:	32 97       	sbiw	r30, 0x02	; 2
    25ee:	13 82       	std	Z+3, r1	; 0x03
    25f0:	12 82       	std	Z+2, r1	; 0x02
    25f2:	00 91 3a 02 	lds	r16, 0x023A	; 0x80023a <__flp>
    25f6:	10 91 3b 02 	lds	r17, 0x023B	; 0x80023b <__flp+0x1>
    25fa:	01 15       	cp	r16, r1
    25fc:	11 05       	cpc	r17, r1
    25fe:	81 f4       	brne	.+32     	; 0x2620 <free+0x44>
    2600:	20 81       	ld	r18, Z
    2602:	31 81       	ldd	r19, Z+1	; 0x01
    2604:	82 0f       	add	r24, r18
    2606:	93 1f       	adc	r25, r19
    2608:	20 91 38 02 	lds	r18, 0x0238	; 0x800238 <__brkval>
    260c:	30 91 39 02 	lds	r19, 0x0239	; 0x800239 <__brkval+0x1>
    2610:	28 17       	cp	r18, r24
    2612:	39 07       	cpc	r19, r25
    2614:	79 f5       	brne	.+94     	; 0x2674 <free+0x98>
    2616:	f0 93 39 02 	sts	0x0239, r31	; 0x800239 <__brkval+0x1>
    261a:	e0 93 38 02 	sts	0x0238, r30	; 0x800238 <__brkval>
    261e:	71 c0       	rjmp	.+226    	; 0x2702 <free+0x126>
    2620:	d8 01       	movw	r26, r16
    2622:	40 e0       	ldi	r20, 0x00	; 0
    2624:	50 e0       	ldi	r21, 0x00	; 0
    2626:	ae 17       	cp	r26, r30
    2628:	bf 07       	cpc	r27, r31
    262a:	50 f4       	brcc	.+20     	; 0x2640 <free+0x64>
    262c:	12 96       	adiw	r26, 0x02	; 2
    262e:	2d 91       	ld	r18, X+
    2630:	3c 91       	ld	r19, X
    2632:	13 97       	sbiw	r26, 0x03	; 3
    2634:	ad 01       	movw	r20, r26
    2636:	21 15       	cp	r18, r1
    2638:	31 05       	cpc	r19, r1
    263a:	09 f1       	breq	.+66     	; 0x267e <free+0xa2>
    263c:	d9 01       	movw	r26, r18
    263e:	f3 cf       	rjmp	.-26     	; 0x2626 <free+0x4a>
    2640:	9d 01       	movw	r18, r26
    2642:	da 01       	movw	r26, r20
    2644:	33 83       	std	Z+3, r19	; 0x03
    2646:	22 83       	std	Z+2, r18	; 0x02
    2648:	60 81       	ld	r22, Z
    264a:	71 81       	ldd	r23, Z+1	; 0x01
    264c:	86 0f       	add	r24, r22
    264e:	97 1f       	adc	r25, r23
    2650:	82 17       	cp	r24, r18
    2652:	93 07       	cpc	r25, r19
    2654:	69 f4       	brne	.+26     	; 0x2670 <free+0x94>
    2656:	ec 01       	movw	r28, r24
    2658:	28 81       	ld	r18, Y
    265a:	39 81       	ldd	r19, Y+1	; 0x01
    265c:	26 0f       	add	r18, r22
    265e:	37 1f       	adc	r19, r23
    2660:	2e 5f       	subi	r18, 0xFE	; 254
    2662:	3f 4f       	sbci	r19, 0xFF	; 255
    2664:	31 83       	std	Z+1, r19	; 0x01
    2666:	20 83       	st	Z, r18
    2668:	8a 81       	ldd	r24, Y+2	; 0x02
    266a:	9b 81       	ldd	r25, Y+3	; 0x03
    266c:	93 83       	std	Z+3, r25	; 0x03
    266e:	82 83       	std	Z+2, r24	; 0x02
    2670:	45 2b       	or	r20, r21
    2672:	29 f4       	brne	.+10     	; 0x267e <free+0xa2>
    2674:	f0 93 3b 02 	sts	0x023B, r31	; 0x80023b <__flp+0x1>
    2678:	e0 93 3a 02 	sts	0x023A, r30	; 0x80023a <__flp>
    267c:	42 c0       	rjmp	.+132    	; 0x2702 <free+0x126>
    267e:	13 96       	adiw	r26, 0x03	; 3
    2680:	fc 93       	st	X, r31
    2682:	ee 93       	st	-X, r30
    2684:	12 97       	sbiw	r26, 0x02	; 2
    2686:	ed 01       	movw	r28, r26
    2688:	49 91       	ld	r20, Y+
    268a:	59 91       	ld	r21, Y+
    268c:	9e 01       	movw	r18, r28
    268e:	24 0f       	add	r18, r20
    2690:	35 1f       	adc	r19, r21
    2692:	e2 17       	cp	r30, r18
    2694:	f3 07       	cpc	r31, r19
    2696:	71 f4       	brne	.+28     	; 0x26b4 <free+0xd8>
    2698:	80 81       	ld	r24, Z
    269a:	91 81       	ldd	r25, Z+1	; 0x01
    269c:	84 0f       	add	r24, r20
    269e:	95 1f       	adc	r25, r21
    26a0:	02 96       	adiw	r24, 0x02	; 2
    26a2:	11 96       	adiw	r26, 0x01	; 1
    26a4:	9c 93       	st	X, r25
    26a6:	8e 93       	st	-X, r24
    26a8:	82 81       	ldd	r24, Z+2	; 0x02
    26aa:	93 81       	ldd	r25, Z+3	; 0x03
    26ac:	13 96       	adiw	r26, 0x03	; 3
    26ae:	9c 93       	st	X, r25
    26b0:	8e 93       	st	-X, r24
    26b2:	12 97       	sbiw	r26, 0x02	; 2
    26b4:	e0 e0       	ldi	r30, 0x00	; 0
    26b6:	f0 e0       	ldi	r31, 0x00	; 0
    26b8:	d8 01       	movw	r26, r16
    26ba:	12 96       	adiw	r26, 0x02	; 2
    26bc:	8d 91       	ld	r24, X+
    26be:	9c 91       	ld	r25, X
    26c0:	13 97       	sbiw	r26, 0x03	; 3
    26c2:	00 97       	sbiw	r24, 0x00	; 0
    26c4:	19 f0       	breq	.+6      	; 0x26cc <free+0xf0>
    26c6:	f8 01       	movw	r30, r16
    26c8:	8c 01       	movw	r16, r24
    26ca:	f6 cf       	rjmp	.-20     	; 0x26b8 <free+0xdc>
    26cc:	8d 91       	ld	r24, X+
    26ce:	9c 91       	ld	r25, X
    26d0:	98 01       	movw	r18, r16
    26d2:	2e 5f       	subi	r18, 0xFE	; 254
    26d4:	3f 4f       	sbci	r19, 0xFF	; 255
    26d6:	82 0f       	add	r24, r18
    26d8:	93 1f       	adc	r25, r19
    26da:	20 91 38 02 	lds	r18, 0x0238	; 0x800238 <__brkval>
    26de:	30 91 39 02 	lds	r19, 0x0239	; 0x800239 <__brkval+0x1>
    26e2:	28 17       	cp	r18, r24
    26e4:	39 07       	cpc	r19, r25
    26e6:	69 f4       	brne	.+26     	; 0x2702 <free+0x126>
    26e8:	30 97       	sbiw	r30, 0x00	; 0
    26ea:	29 f4       	brne	.+10     	; 0x26f6 <free+0x11a>
    26ec:	10 92 3b 02 	sts	0x023B, r1	; 0x80023b <__flp+0x1>
    26f0:	10 92 3a 02 	sts	0x023A, r1	; 0x80023a <__flp>
    26f4:	02 c0       	rjmp	.+4      	; 0x26fa <free+0x11e>
    26f6:	13 82       	std	Z+3, r1	; 0x03
    26f8:	12 82       	std	Z+2, r1	; 0x02
    26fa:	10 93 39 02 	sts	0x0239, r17	; 0x800239 <__brkval+0x1>
    26fe:	00 93 38 02 	sts	0x0238, r16	; 0x800238 <__brkval>
    2702:	df 91       	pop	r29
    2704:	cf 91       	pop	r28
    2706:	1f 91       	pop	r17
    2708:	0f 91       	pop	r16
    270a:	08 95       	ret

0000270c <realloc>:
    270c:	a0 e0       	ldi	r26, 0x00	; 0
    270e:	b0 e0       	ldi	r27, 0x00	; 0
    2710:	ec e8       	ldi	r30, 0x8C	; 140
    2712:	f3 e1       	ldi	r31, 0x13	; 19
    2714:	0c 94 ec 14 	jmp	0x29d8	; 0x29d8 <__prologue_saves__+0x8>
    2718:	ec 01       	movw	r28, r24
    271a:	00 97       	sbiw	r24, 0x00	; 0
    271c:	21 f4       	brne	.+8      	; 0x2726 <realloc+0x1a>
    271e:	cb 01       	movw	r24, r22
    2720:	0e 94 59 12 	call	0x24b2	; 0x24b2 <malloc>
    2724:	b8 c0       	rjmp	.+368    	; 0x2896 <realloc+0x18a>
    2726:	fc 01       	movw	r30, r24
    2728:	e6 0f       	add	r30, r22
    272a:	f7 1f       	adc	r31, r23
    272c:	9c 01       	movw	r18, r24
    272e:	22 50       	subi	r18, 0x02	; 2
    2730:	31 09       	sbc	r19, r1
    2732:	e2 17       	cp	r30, r18
    2734:	f3 07       	cpc	r31, r19
    2736:	08 f4       	brcc	.+2      	; 0x273a <realloc+0x2e>
    2738:	ac c0       	rjmp	.+344    	; 0x2892 <realloc+0x186>
    273a:	d9 01       	movw	r26, r18
    273c:	0d 91       	ld	r16, X+
    273e:	1c 91       	ld	r17, X
    2740:	11 97       	sbiw	r26, 0x01	; 1
    2742:	06 17       	cp	r16, r22
    2744:	17 07       	cpc	r17, r23
    2746:	b0 f0       	brcs	.+44     	; 0x2774 <realloc+0x68>
    2748:	05 30       	cpi	r16, 0x05	; 5
    274a:	11 05       	cpc	r17, r1
    274c:	08 f4       	brcc	.+2      	; 0x2750 <realloc+0x44>
    274e:	9f c0       	rjmp	.+318    	; 0x288e <realloc+0x182>
    2750:	c8 01       	movw	r24, r16
    2752:	04 97       	sbiw	r24, 0x04	; 4
    2754:	86 17       	cp	r24, r22
    2756:	97 07       	cpc	r25, r23
    2758:	08 f4       	brcc	.+2      	; 0x275c <realloc+0x50>
    275a:	99 c0       	rjmp	.+306    	; 0x288e <realloc+0x182>
    275c:	02 50       	subi	r16, 0x02	; 2
    275e:	11 09       	sbc	r17, r1
    2760:	06 1b       	sub	r16, r22
    2762:	17 0b       	sbc	r17, r23
    2764:	01 93       	st	Z+, r16
    2766:	11 93       	st	Z+, r17
    2768:	6d 93       	st	X+, r22
    276a:	7c 93       	st	X, r23
    276c:	cf 01       	movw	r24, r30
    276e:	0e 94 ee 12 	call	0x25dc	; 0x25dc <free>
    2772:	8d c0       	rjmp	.+282    	; 0x288e <realloc+0x182>
    2774:	5b 01       	movw	r10, r22
    2776:	a0 1a       	sub	r10, r16
    2778:	b1 0a       	sbc	r11, r17
    277a:	4c 01       	movw	r8, r24
    277c:	80 0e       	add	r8, r16
    277e:	91 1e       	adc	r9, r17
    2780:	a0 91 3a 02 	lds	r26, 0x023A	; 0x80023a <__flp>
    2784:	b0 91 3b 02 	lds	r27, 0x023B	; 0x80023b <__flp+0x1>
    2788:	40 e0       	ldi	r20, 0x00	; 0
    278a:	50 e0       	ldi	r21, 0x00	; 0
    278c:	e1 2c       	mov	r14, r1
    278e:	f1 2c       	mov	r15, r1
    2790:	10 97       	sbiw	r26, 0x00	; 0
    2792:	09 f4       	brne	.+2      	; 0x2796 <realloc+0x8a>
    2794:	4a c0       	rjmp	.+148    	; 0x282a <realloc+0x11e>
    2796:	a8 15       	cp	r26, r8
    2798:	b9 05       	cpc	r27, r9
    279a:	d1 f5       	brne	.+116    	; 0x2810 <realloc+0x104>
    279c:	6d 90       	ld	r6, X+
    279e:	7c 90       	ld	r7, X
    27a0:	11 97       	sbiw	r26, 0x01	; 1
    27a2:	63 01       	movw	r12, r6
    27a4:	82 e0       	ldi	r24, 0x02	; 2
    27a6:	c8 0e       	add	r12, r24
    27a8:	d1 1c       	adc	r13, r1
    27aa:	ca 14       	cp	r12, r10
    27ac:	db 04       	cpc	r13, r11
    27ae:	80 f1       	brcs	.+96     	; 0x2810 <realloc+0x104>
    27b0:	a3 01       	movw	r20, r6
    27b2:	4a 19       	sub	r20, r10
    27b4:	5b 09       	sbc	r21, r11
    27b6:	6a 01       	movw	r12, r20
    27b8:	82 e0       	ldi	r24, 0x02	; 2
    27ba:	c8 0e       	add	r12, r24
    27bc:	d1 1c       	adc	r13, r1
    27be:	12 96       	adiw	r26, 0x02	; 2
    27c0:	bc 90       	ld	r11, X
    27c2:	12 97       	sbiw	r26, 0x02	; 2
    27c4:	13 96       	adiw	r26, 0x03	; 3
    27c6:	ac 91       	ld	r26, X
    27c8:	b5 e0       	ldi	r27, 0x05	; 5
    27ca:	cb 16       	cp	r12, r27
    27cc:	d1 04       	cpc	r13, r1
    27ce:	40 f0       	brcs	.+16     	; 0x27e0 <realloc+0xd4>
    27d0:	b2 82       	std	Z+2, r11	; 0x02
    27d2:	a3 83       	std	Z+3, r26	; 0x03
    27d4:	51 83       	std	Z+1, r21	; 0x01
    27d6:	40 83       	st	Z, r20
    27d8:	d9 01       	movw	r26, r18
    27da:	6d 93       	st	X+, r22
    27dc:	7c 93       	st	X, r23
    27de:	0a c0       	rjmp	.+20     	; 0x27f4 <realloc+0xe8>
    27e0:	0e 5f       	subi	r16, 0xFE	; 254
    27e2:	1f 4f       	sbci	r17, 0xFF	; 255
    27e4:	c3 01       	movw	r24, r6
    27e6:	80 0f       	add	r24, r16
    27e8:	91 1f       	adc	r25, r17
    27ea:	f9 01       	movw	r30, r18
    27ec:	91 83       	std	Z+1, r25	; 0x01
    27ee:	80 83       	st	Z, r24
    27f0:	eb 2d       	mov	r30, r11
    27f2:	fa 2f       	mov	r31, r26
    27f4:	e1 14       	cp	r14, r1
    27f6:	f1 04       	cpc	r15, r1
    27f8:	31 f0       	breq	.+12     	; 0x2806 <realloc+0xfa>
    27fa:	d7 01       	movw	r26, r14
    27fc:	13 96       	adiw	r26, 0x03	; 3
    27fe:	fc 93       	st	X, r31
    2800:	ee 93       	st	-X, r30
    2802:	12 97       	sbiw	r26, 0x02	; 2
    2804:	44 c0       	rjmp	.+136    	; 0x288e <realloc+0x182>
    2806:	f0 93 3b 02 	sts	0x023B, r31	; 0x80023b <__flp+0x1>
    280a:	e0 93 3a 02 	sts	0x023A, r30	; 0x80023a <__flp>
    280e:	3f c0       	rjmp	.+126    	; 0x288e <realloc+0x182>
    2810:	8d 91       	ld	r24, X+
    2812:	9c 91       	ld	r25, X
    2814:	11 97       	sbiw	r26, 0x01	; 1
    2816:	48 17       	cp	r20, r24
    2818:	59 07       	cpc	r21, r25
    281a:	08 f4       	brcc	.+2      	; 0x281e <realloc+0x112>
    281c:	ac 01       	movw	r20, r24
    281e:	7d 01       	movw	r14, r26
    2820:	12 96       	adiw	r26, 0x02	; 2
    2822:	0d 90       	ld	r0, X+
    2824:	bc 91       	ld	r27, X
    2826:	a0 2d       	mov	r26, r0
    2828:	b3 cf       	rjmp	.-154    	; 0x2790 <realloc+0x84>
    282a:	80 91 38 02 	lds	r24, 0x0238	; 0x800238 <__brkval>
    282e:	90 91 39 02 	lds	r25, 0x0239	; 0x800239 <__brkval+0x1>
    2832:	88 15       	cp	r24, r8
    2834:	99 05       	cpc	r25, r9
    2836:	e1 f4       	brne	.+56     	; 0x2870 <realloc+0x164>
    2838:	46 17       	cp	r20, r22
    283a:	57 07       	cpc	r21, r23
    283c:	c8 f4       	brcc	.+50     	; 0x2870 <realloc+0x164>
    283e:	80 91 00 01 	lds	r24, 0x0100	; 0x800100 <__data_start>
    2842:	90 91 01 01 	lds	r25, 0x0101	; 0x800101 <__data_start+0x1>
    2846:	00 97       	sbiw	r24, 0x00	; 0
    2848:	41 f4       	brne	.+16     	; 0x285a <realloc+0x14e>
    284a:	8d b7       	in	r24, 0x3d	; 61
    284c:	9e b7       	in	r25, 0x3e	; 62
    284e:	40 91 04 01 	lds	r20, 0x0104	; 0x800104 <__malloc_margin>
    2852:	50 91 05 01 	lds	r21, 0x0105	; 0x800105 <__malloc_margin+0x1>
    2856:	84 1b       	sub	r24, r20
    2858:	95 0b       	sbc	r25, r21
    285a:	e8 17       	cp	r30, r24
    285c:	f9 07       	cpc	r31, r25
    285e:	c8 f4       	brcc	.+50     	; 0x2892 <realloc+0x186>
    2860:	f0 93 39 02 	sts	0x0239, r31	; 0x800239 <__brkval+0x1>
    2864:	e0 93 38 02 	sts	0x0238, r30	; 0x800238 <__brkval>
    2868:	f9 01       	movw	r30, r18
    286a:	71 83       	std	Z+1, r23	; 0x01
    286c:	60 83       	st	Z, r22
    286e:	0f c0       	rjmp	.+30     	; 0x288e <realloc+0x182>
    2870:	cb 01       	movw	r24, r22
    2872:	0e 94 59 12 	call	0x24b2	; 0x24b2 <malloc>
    2876:	7c 01       	movw	r14, r24
    2878:	00 97       	sbiw	r24, 0x00	; 0
    287a:	59 f0       	breq	.+22     	; 0x2892 <realloc+0x186>
    287c:	a8 01       	movw	r20, r16
    287e:	be 01       	movw	r22, r28
    2880:	0e 94 60 14 	call	0x28c0	; 0x28c0 <memcpy>
    2884:	ce 01       	movw	r24, r28
    2886:	0e 94 ee 12 	call	0x25dc	; 0x25dc <free>
    288a:	c7 01       	movw	r24, r14
    288c:	04 c0       	rjmp	.+8      	; 0x2896 <realloc+0x18a>
    288e:	ce 01       	movw	r24, r28
    2890:	02 c0       	rjmp	.+4      	; 0x2896 <realloc+0x18a>
    2892:	80 e0       	ldi	r24, 0x00	; 0
    2894:	90 e0       	ldi	r25, 0x00	; 0
    2896:	cd b7       	in	r28, 0x3d	; 61
    2898:	de b7       	in	r29, 0x3e	; 62
    289a:	ee e0       	ldi	r30, 0x0E	; 14
    289c:	0c 94 08 15 	jmp	0x2a10	; 0x2a10 <__epilogue_restores__+0x8>

000028a0 <strcpy_P>:
    28a0:	fb 01       	movw	r30, r22
    28a2:	dc 01       	movw	r26, r24
    28a4:	05 90       	lpm	r0, Z+
    28a6:	0d 92       	st	X+, r0
    28a8:	00 20       	and	r0, r0
    28aa:	e1 f7       	brne	.-8      	; 0x28a4 <strcpy_P+0x4>
    28ac:	08 95       	ret

000028ae <__strlen_P>:
    28ae:	fc 01       	movw	r30, r24
    28b0:	05 90       	lpm	r0, Z+
    28b2:	00 20       	and	r0, r0
    28b4:	e9 f7       	brne	.-6      	; 0x28b0 <__strlen_P+0x2>
    28b6:	80 95       	com	r24
    28b8:	90 95       	com	r25
    28ba:	8e 0f       	add	r24, r30
    28bc:	9f 1f       	adc	r25, r31
    28be:	08 95       	ret

000028c0 <memcpy>:
    28c0:	fb 01       	movw	r30, r22
    28c2:	dc 01       	movw	r26, r24
    28c4:	02 c0       	rjmp	.+4      	; 0x28ca <memcpy+0xa>
    28c6:	01 90       	ld	r0, Z+
    28c8:	0d 92       	st	X+, r0
    28ca:	41 50       	subi	r20, 0x01	; 1
    28cc:	50 40       	sbci	r21, 0x00	; 0
    28ce:	d8 f7       	brcc	.-10     	; 0x28c6 <memcpy+0x6>
    28d0:	08 95       	ret

000028d2 <strcpy>:
    28d2:	fb 01       	movw	r30, r22
    28d4:	dc 01       	movw	r26, r24
    28d6:	01 90       	ld	r0, Z+
    28d8:	0d 92       	st	X+, r0
    28da:	00 20       	and	r0, r0
    28dc:	e1 f7       	brne	.-8      	; 0x28d6 <strcpy+0x4>
    28de:	08 95       	ret

000028e0 <itoa>:
    28e0:	45 32       	cpi	r20, 0x25	; 37
    28e2:	51 05       	cpc	r21, r1
    28e4:	20 f4       	brcc	.+8      	; 0x28ee <itoa+0xe>
    28e6:	42 30       	cpi	r20, 0x02	; 2
    28e8:	10 f0       	brcs	.+4      	; 0x28ee <itoa+0xe>
    28ea:	0c 94 7b 14 	jmp	0x28f6	; 0x28f6 <__itoa_ncheck>
    28ee:	fb 01       	movw	r30, r22
    28f0:	10 82       	st	Z, r1
    28f2:	cb 01       	movw	r24, r22
    28f4:	08 95       	ret

000028f6 <__itoa_ncheck>:
    28f6:	bb 27       	eor	r27, r27
    28f8:	4a 30       	cpi	r20, 0x0A	; 10
    28fa:	31 f4       	brne	.+12     	; 0x2908 <__itoa_ncheck+0x12>
    28fc:	99 23       	and	r25, r25
    28fe:	22 f4       	brpl	.+8      	; 0x2908 <__itoa_ncheck+0x12>
    2900:	bd e2       	ldi	r27, 0x2D	; 45
    2902:	90 95       	com	r25
    2904:	81 95       	neg	r24
    2906:	9f 4f       	sbci	r25, 0xFF	; 255
    2908:	0c 94 bf 14 	jmp	0x297e	; 0x297e <__utoa_common>

0000290c <ultoa>:
    290c:	25 32       	cpi	r18, 0x25	; 37
    290e:	31 05       	cpc	r19, r1
    2910:	20 f4       	brcc	.+8      	; 0x291a <ultoa+0xe>
    2912:	22 30       	cpi	r18, 0x02	; 2
    2914:	10 f0       	brcs	.+4      	; 0x291a <ultoa+0xe>
    2916:	0c 94 91 14 	jmp	0x2922	; 0x2922 <__ultoa_ncheck>
    291a:	fa 01       	movw	r30, r20
    291c:	10 82       	st	Z, r1
    291e:	ca 01       	movw	r24, r20
    2920:	08 95       	ret

00002922 <__ultoa_ncheck>:
    2922:	bb 27       	eor	r27, r27

00002924 <__ultoa_common>:
    2924:	fa 01       	movw	r30, r20
    2926:	a6 2f       	mov	r26, r22
    2928:	62 17       	cp	r22, r18
    292a:	71 05       	cpc	r23, r1
    292c:	81 05       	cpc	r24, r1
    292e:	91 05       	cpc	r25, r1
    2930:	33 0b       	sbc	r19, r19
    2932:	30 fb       	bst	r19, 0
    2934:	66 f0       	brts	.+24     	; 0x294e <__ultoa_common+0x2a>
    2936:	aa 27       	eor	r26, r26
    2938:	66 0f       	add	r22, r22
    293a:	77 1f       	adc	r23, r23
    293c:	88 1f       	adc	r24, r24
    293e:	99 1f       	adc	r25, r25
    2940:	aa 1f       	adc	r26, r26
    2942:	a2 17       	cp	r26, r18
    2944:	10 f0       	brcs	.+4      	; 0x294a <__ultoa_common+0x26>
    2946:	a2 1b       	sub	r26, r18
    2948:	63 95       	inc	r22
    294a:	38 50       	subi	r19, 0x08	; 8
    294c:	a9 f7       	brne	.-22     	; 0x2938 <__ultoa_common+0x14>
    294e:	a0 5d       	subi	r26, 0xD0	; 208
    2950:	aa 33       	cpi	r26, 0x3A	; 58
    2952:	08 f0       	brcs	.+2      	; 0x2956 <__ultoa_common+0x32>
    2954:	a9 5d       	subi	r26, 0xD9	; 217
    2956:	a1 93       	st	Z+, r26
    2958:	36 f7       	brtc	.-52     	; 0x2926 <__ultoa_common+0x2>
    295a:	b1 11       	cpse	r27, r1
    295c:	b1 93       	st	Z+, r27
    295e:	10 82       	st	Z, r1
    2960:	ca 01       	movw	r24, r20
    2962:	0c 94 d8 14 	jmp	0x29b0	; 0x29b0 <strrev>

00002966 <utoa>:
    2966:	45 32       	cpi	r20, 0x25	; 37
    2968:	51 05       	cpc	r21, r1
    296a:	20 f4       	brcc	.+8      	; 0x2974 <utoa+0xe>
    296c:	42 30       	cpi	r20, 0x02	; 2
    296e:	10 f0       	brcs	.+4      	; 0x2974 <utoa+0xe>
    2970:	0c 94 be 14 	jmp	0x297c	; 0x297c <__utoa_ncheck>
    2974:	fb 01       	movw	r30, r22
    2976:	10 82       	st	Z, r1
    2978:	cb 01       	movw	r24, r22
    297a:	08 95       	ret

0000297c <__utoa_ncheck>:
    297c:	bb 27       	eor	r27, r27

0000297e <__utoa_common>:
    297e:	fb 01       	movw	r30, r22
    2980:	55 27       	eor	r21, r21
    2982:	aa 27       	eor	r26, r26
    2984:	88 0f       	add	r24, r24
    2986:	99 1f       	adc	r25, r25
    2988:	aa 1f       	adc	r26, r26
    298a:	a4 17       	cp	r26, r20
    298c:	10 f0       	brcs	.+4      	; 0x2992 <__utoa_common+0x14>
    298e:	a4 1b       	sub	r26, r20
    2990:	83 95       	inc	r24
    2992:	50 51       	subi	r21, 0x10	; 16
    2994:	b9 f7       	brne	.-18     	; 0x2984 <__utoa_common+0x6>
    2996:	a0 5d       	subi	r26, 0xD0	; 208
    2998:	aa 33       	cpi	r26, 0x3A	; 58
    299a:	08 f0       	brcs	.+2      	; 0x299e <__utoa_common+0x20>
    299c:	a9 5d       	subi	r26, 0xD9	; 217
    299e:	a1 93       	st	Z+, r26
    29a0:	00 97       	sbiw	r24, 0x00	; 0
    29a2:	79 f7       	brne	.-34     	; 0x2982 <__utoa_common+0x4>
    29a4:	b1 11       	cpse	r27, r1
    29a6:	b1 93       	st	Z+, r27
    29a8:	11 92       	st	Z+, r1
    29aa:	cb 01       	movw	r24, r22
    29ac:	0c 94 d8 14 	jmp	0x29b0	; 0x29b0 <strrev>

000029b0 <strrev>:
    29b0:	dc 01       	movw	r26, r24
    29b2:	fc 01       	movw	r30, r24
    29b4:	67 2f       	mov	r22, r23
    29b6:	71 91       	ld	r23, Z+
    29b8:	77 23       	and	r23, r23
    29ba:	e1 f7       	brne	.-8      	; 0x29b4 <strrev+0x4>
    29bc:	32 97       	sbiw	r30, 0x02	; 2
    29be:	04 c0       	rjmp	.+8      	; 0x29c8 <strrev+0x18>
    29c0:	7c 91       	ld	r23, X
    29c2:	6d 93       	st	X+, r22
    29c4:	70 83       	st	Z, r23
    29c6:	62 91       	ld	r22, -Z
    29c8:	ae 17       	cp	r26, r30
    29ca:	bf 07       	cpc	r27, r31
    29cc:	c8 f3       	brcs	.-14     	; 0x29c0 <strrev+0x10>
    29ce:	08 95       	ret

000029d0 <__prologue_saves__>:
    29d0:	2f 92       	push	r2
    29d2:	3f 92       	push	r3
    29d4:	4f 92       	push	r4
    29d6:	5f 92       	push	r5
    29d8:	6f 92       	push	r6
    29da:	7f 92       	push	r7
    29dc:	8f 92       	push	r8
    29de:	9f 92       	push	r9
    29e0:	af 92       	push	r10
    29e2:	bf 92       	push	r11
    29e4:	cf 92       	push	r12
    29e6:	df 92       	push	r13
    29e8:	ef 92       	push	r14
    29ea:	ff 92       	push	r15
    29ec:	0f 93       	push	r16
    29ee:	1f 93       	push	r17
    29f0:	cf 93       	push	r28
    29f2:	df 93       	push	r29
    29f4:	cd b7       	in	r28, 0x3d	; 61
    29f6:	de b7       	in	r29, 0x3e	; 62
    29f8:	ca 1b       	sub	r28, r26
    29fa:	db 0b       	sbc	r29, r27
    29fc:	0f b6       	in	r0, 0x3f	; 63
    29fe:	f8 94       	cli
    2a00:	de bf       	out	0x3e, r29	; 62
    2a02:	0f be       	out	0x3f, r0	; 63
    2a04:	cd bf       	out	0x3d, r28	; 61
    2a06:	09 94       	ijmp

00002a08 <__epilogue_restores__>:
    2a08:	2a 88       	ldd	r2, Y+18	; 0x12
    2a0a:	39 88       	ldd	r3, Y+17	; 0x11
    2a0c:	48 88       	ldd	r4, Y+16	; 0x10
    2a0e:	5f 84       	ldd	r5, Y+15	; 0x0f
    2a10:	6e 84       	ldd	r6, Y+14	; 0x0e
    2a12:	7d 84       	ldd	r7, Y+13	; 0x0d
    2a14:	8c 84       	ldd	r8, Y+12	; 0x0c
    2a16:	9b 84       	ldd	r9, Y+11	; 0x0b
    2a18:	aa 84       	ldd	r10, Y+10	; 0x0a
    2a1a:	b9 84       	ldd	r11, Y+9	; 0x09
    2a1c:	c8 84       	ldd	r12, Y+8	; 0x08
    2a1e:	df 80       	ldd	r13, Y+7	; 0x07
    2a20:	ee 80       	ldd	r14, Y+6	; 0x06
    2a22:	fd 80       	ldd	r15, Y+5	; 0x05
    2a24:	0c 81       	ldd	r16, Y+4	; 0x04
    2a26:	1b 81       	ldd	r17, Y+3	; 0x03
    2a28:	aa 81       	ldd	r26, Y+2	; 0x02
    2a2a:	b9 81       	ldd	r27, Y+1	; 0x01
    2a2c:	ce 0f       	add	r28, r30
    2a2e:	d1 1d       	adc	r29, r1
    2a30:	0f b6       	in	r0, 0x3f	; 63
    2a32:	f8 94       	cli
    2a34:	de bf       	out	0x3e, r29	; 62
    2a36:	0f be       	out	0x3f, r0	; 63
    2a38:	cd bf       	out	0x3d, r28	; 61
    2a3a:	ed 01       	movw	r28, r26
    2a3c:	08 95       	ret

00002a3e <_exit>:
    2a3e:	f8 94       	cli

00002a40 <__stop_program>:
    2a40:	ff cf       	rjmp	.-2      	; 0x2a40 <__stop_program>
